0x00007ffd146c9a1d	88 44 24 30 	mov byte ptr [rsp+0x30], al
0x00007ffd146c9a21	e8 2a ae 00 00 	call 0x7ffd146d4850
0x00007ffd146d4850	65 48 8b 04 25 60 00 00 00 	mov rax, qword ptr gs:[0x60]
0x00007ffd146d4859	48 8b 80 90 00 00 00 	mov rax, qword ptr [rax+0x90]
0x00007ffd146d4860	48 85 c0 	test rax, rax
0x00007ffd146d4863	75 02 	jnz 0x7ffd146d4867
0x00007ffd146d4865	c3 	ret 
0x00007ffd146c9a26	85 c0 	test eax, eax
0x00007ffd146c9a28	0f 85 86 44 09 00 	jnz 0x7ffd1475deb4
0x00007ffd146c9a2e	80 3f 00 	cmp byte ptr [rdi], 0x0
0x00007ffd146c9a31	0f 85 99 44 09 00 	jnz 0x7ffd1475ded0
0x00007ffd146c9a37	80 7c 24 30 00 	cmp byte ptr [rsp+0x30], 0x0
0x00007ffd146c9a3c	74 17 	jz 0x7ffd146c9a55
0x00007ffd146c9a3e	8a 44 24 30 	mov al, byte ptr [rsp+0x30]
0x00007ffd146c9a42	48 8b 5c 24 70 	mov rbx, qword ptr [rsp+0x70]
0x00007ffd146c9a47	48 83 c4 40 	add rsp, 0x40
0x00007ffd146c9a4b	41 5f 	pop r15
0x00007ffd146c9a4d	41 5e 	pop r14
0x00007ffd146c9a4f	41 5c 	pop r12
0x00007ffd146c9a51	5f 	pop rdi
0x00007ffd146c9a52	5e 	pop rsi
0x00007ffd146c9a53	c3 	ret 
0x00007ffd1471c2f7	44 8a e8 	mov r13b, al
0x00007ffd1471c2fa	88 84 24 60 01 00 00 	mov byte ptr [rsp+0x160], al
0x00007ffd1471c301	48 8d 8c 24 c0 00 00 00 	lea rcx, ptr [rsp+0xc0]
0x00007ffd1471c309	e8 a2 d4 fa ff 	call 0x7ffd146c97b0
0x00007ffd146c97b0	48 8b c4 	mov rax, rsp
0x00007ffd146c97b3	48 89 58 10 	mov qword ptr [rax+0x10], rbx
0x00007ffd146c97b7	48 89 70 18 	mov qword ptr [rax+0x18], rsi
0x00007ffd146c97bb	48 89 78 20 	mov qword ptr [rax+0x20], rdi
0x00007ffd146c97bf	55 	push rbp
0x00007ffd146c97c0	41 54 	push r12
0x00007ffd146c97c2	41 55 	push r13
0x00007ffd146c97c4	41 56 	push r14
0x00007ffd146c97c6	41 57 	push r15
0x00007ffd146c97c8	48 8d 68 a1 	lea rbp, ptr [rax-0x5f]
0x00007ffd146c97cc	48 81 ec e0 00 00 00 	sub rsp, 0xe0
0x00007ffd146c97d3	48 8b 05 36 ad 16 00 	mov rax, qword ptr [rip+0x16ad36]
0x00007ffd146c97da	48 33 c4 	xor rax, rsp
0x00007ffd146c97dd	48 89 45 27 	mov qword ptr [rbp+0x27], rax
0x00007ffd146c97e1	65 48 8b 04 25 30 00 00 00 	mov rax, qword ptr gs:[0x30]
0x00007ffd146c97ea	45 33 ed 	xor r13d, r13d
0x00007ffd146c97ed	48 8b d9 	mov rbx, rcx
0x00007ffd146c97f0	48 8b b8 c8 02 00 00 	mov rdi, qword ptr [rax+0x2c8]
0x00007ffd146c97f7	48 85 ff 	test rdi, rdi
0x00007ffd146c97fa	0f 84 ed 00 00 00 	jz 0x7ffd146c98ed
0x00007ffd146c9800	48 8b 17 	mov rdx, qword ptr [rdi]
0x00007ffd146c9803	8b 49 20 	mov ecx, dword ptr [rcx+0x20]
0x00007ffd146c9806	f6 c1 40 	test cl, 0x40
0x00007ffd146c9809	0f 85 3d 44 09 00 	jnz 0x7ffd1475dc4c
0x00007ffd146c980f	f6 c1 20 	test cl, 0x20
0x00007ffd146c9812	0f 84 5f 44 09 00 	jz 0x7ffd1475dc77
0x00007ffd146c9818	8b c1 	mov eax, ecx
0x00007ffd146c981a	24 60 	and al, 0x60
0x00007ffd146c981c	3c 20 	cmp al, 0x20
0x00007ffd146c981e	0f 85 8e 44 09 00 	jnz 0x7ffd1475dcb2
0x00007ffd146c9824	48 83 3b 48 	cmp qword ptr [rbx], 0x48
0x00007ffd146c9828	72 25 	jb 0x7ffd146c984f
0x00007ffd146c982a	4c 8d 43 10 	lea r8, ptr [rbx+0x10]
0x00007ffd146c982e	49 8b 00 	mov rax, qword ptr [r8]
0x00007ffd146c9831	48 f7 d0 	not rax
0x00007ffd146c9834	48 39 43 28 	cmp qword ptr [rbx+0x28], rax
0x00007ffd146c9838	0f 85 7e 44 09 00 	jnz 0x7ffd1475dcbc
0x00007ffd146c983e	48 8b 43 18 	mov rax, qword ptr [rbx+0x18]
0x00007ffd146c9842	48 f7 d0 	not rax
0x00007ffd146c9845	48 39 43 30 	cmp qword ptr [rbx+0x30], rax
0x00007ffd146c9849	0f 85 6d 44 09 00 	jnz 0x7ffd1475dcbc
0x00007ffd146c984f	48 85 d2 	test rdx, rdx
0x00007ffd146c9852	75 45 	jnz 0x7ffd146c9899
0x00007ffd146c9854	f6 c1 10 	test cl, 0x10
0x00007ffd146c9857	74 7c 	jz 0x7ffd146c98d5
0x00007ffd146c9859	83 4b 20 40 	or dword ptr [rbx+0x20], 0x40
0x00007ffd146c985d	48 83 3b 48 	cmp qword ptr [rbx], 0x48
0x00007ffd146c9861	72 08 	jb 0x7ffd146c986b
0x00007ffd146c9863	48 8b 45 5f 	mov rax, qword ptr [rbp+0x5f]
0x00007ffd146c9867	48 89 43 40 	mov qword ptr [rbx+0x40], rax
0x00007ffd146c986b	48 8b 4d 27 	mov rcx, qword ptr [rbp+0x27]
0x00007ffd146c986f	48 33 cc 	xor rcx, rsp
0x00007ffd146c9872	e8 c9 2a 07 00 	call 0x7ffd1473c340
0x00007ffd1473c340	48 3b 0d c9 81 0f 00 	cmp rcx, qword ptr [rip+0xf81c9]
0x00007ffd1473c347	75 10 	jnz 0x7ffd1473c359
0x00007ffd1473c349	48 c1 c1 10 	rol rcx, 0x10
0x00007ffd1473c34d	66 f7 c1 ff ff 	test cx, 0xffff
0x00007ffd1473c352	75 01 	jnz 0x7ffd1473c355
0x00007ffd1473c354	c3 	ret 
0x00007ffd146c9877	4c 8d 9c 24 e0 00 00 00 	lea r11, ptr [rsp+0xe0]
0x00007ffd146c987f	49 8b 5b 38 	mov rbx, qword ptr [r11+0x38]
0x00007ffd146c9883	49 8b 73 40 	mov rsi, qword ptr [r11+0x40]
0x00007ffd146c9887	49 8b 7b 48 	mov rdi, qword ptr [r11+0x48]
0x00007ffd146c988b	49 8b e3 	mov rsp, r11
0x00007ffd146c988e	41 5f 	pop r15
0x00007ffd146c9890	41 5e 	pop r14
0x00007ffd146c9892	41 5d 	pop r13
0x00007ffd146c9894	41 5c 	pop r12
0x00007ffd146c9896	5d 	pop rbp
0x00007ffd146c9897	c3 	ret 
0x00007ffd1471c30e	8b 05 9c a7 0f 00 	mov eax, dword ptr [rip+0xfa79c]
0x00007ffd1471c314	48 8b 54 24 78 	mov rdx, qword ptr [rsp+0x78]
0x00007ffd1471c319	e9 9e 00 00 00 	jmp 0x7ffd1471c3bc
0x00007ffd1471c3bc	48 89 15 05 08 10 00 	mov qword ptr [rip+0x100805], rdx
0x00007ffd1471c3c3	44 38 b4 24 58 01 00 00 	cmp byte ptr [rsp+0x158], r14b
0x00007ffd1471c3cb	75 05 	jnz 0x7ffd1471c3d2
0x00007ffd1471c3cd	0f ba 6b 68 13 	bts dword ptr [rbx+0x68], 0x13
0x00007ffd1471c3d2	45 84 ed 	test r13b, r13b
0x00007ffd1471c3d5	0f 84 1c 3d 05 00 	jz 0x7ffd147700f7
0x00007ffd1471c3db	41 b8 ae 14 00 00 	mov r8d, 0x14ae
0x00007ffd1471c3e1	48 8d 53 48 	lea rdx, ptr [rbx+0x48]
0x00007ffd1471c3e5	48 8b 4b 30 	mov rcx, qword ptr [rbx+0x30]
0x00007ffd1471c3e9	e8 de e2 fa ff 	call 0x7ffd146ca6cc
0x00007ffd146ca6cc	48 89 5c 24 08 	mov qword ptr [rsp+0x8], rbx
0x00007ffd146ca6d1	48 89 74 24 10 	mov qword ptr [rsp+0x10], rsi
0x00007ffd146ca6d6	57 	push rdi
0x00007ffd146ca6d7	48 83 ec 30 	sub rsp, 0x30
0x00007ffd146ca6db	65 48 8b 04 25 60 00 00 00 	mov rax, qword ptr gs:[0x60]
0x00007ffd146ca6e4	41 0f b7 d8 	movzx ebx, r8w
0x00007ffd146ca6e8	48 8b fa 	mov rdi, rdx
0x00007ffd146ca6eb	48 8b f1 	mov rsi, rcx
0x00007ffd146ca6ee	4c 8b 88 90 00 00 00 	mov r9, qword ptr [rax+0x90]
0x00007ffd146ca6f5	4d 85 c9 	test r9, r9
0x00007ffd146ca6f8	0f 85 9a c2 08 00 	jnz 0x7ffd14756998
0x00007ffd146ca6fe	41 b8 84 03 fe 7f 	mov r8d, 0x7ffe0384
0x00007ffd146ca704	41 80 38 00 	cmp byte ptr [r8], 0x0
0x00007ffd146ca708	0f 85 b0 c2 08 00 	jnz 0x7ffd147569be
0x00007ffd146ca70e	48 8b 5c 24 40 	mov rbx, qword ptr [rsp+0x40]
0x00007ffd146ca713	48 8b 74 24 48 	mov rsi, qword ptr [rsp+0x48]
0x00007ffd146ca718	48 83 c4 30 	add rsp, 0x30
0x00007ffd146ca71c	5f 	pop rdi
0x00007ffd146ca71d	c3 	ret 
0x00007ffd1471c3ee	4c 8b 05 d3 fc 0f 00 	mov r8, qword ptr [rip+0xffcd3]
0x00007ffd1471c3f5	48 8b 76 08 	mov rsi, qword ptr [rsi+0x8]
0x00007ffd1471c3f9	e9 a9 fd ff ff 	jmp 0x7ffd1471c1a7
0x00007ffd1471c1a7	48 89 74 24 60 	mov qword ptr [rsp+0x60], rsi
0x00007ffd1471c1ac	48 3b f7 	cmp rsi, rdi
0x00007ffd1471c1af	0f 84 49 02 00 00 	jz 0x7ffd1471c3fe
0x00007ffd1471c3fe	41 8b cf 	mov ecx, r15d
0x00007ffd1471c401	f7 d9 	neg ecx
0x00007ffd1471c403	1b d2 	sbb edx, edx
0x00007ffd1471c405	83 e2 f3 	and edx, 0xfffffff3
0x00007ffd1471c408	83 c2 09 	add edx, 0x9
0x00007ffd1471c40b	48 8b 44 24 68 	mov rax, qword ptr [rsp+0x68]
0x00007ffd1471c410	89 50 38 	mov dword ptr [rax+0x38], edx
0x00007ffd1471c413	41 8b c7 	mov eax, r15d
0x00007ffd1471c416	48 81 c4 18 01 00 00 	add rsp, 0x118
0x00007ffd1471c41d	41 5f 	pop r15
0x00007ffd1471c41f	41 5e 	pop r14
0x00007ffd1471c421	41 5d 	pop r13
0x00007ffd1471c423	5f 	pop rdi
0x00007ffd1471c424	5e 	pop rsi
0x00007ffd1471c425	5b 	pop rbx
0x00007ffd1471c426	c3 	ret 
0x00007ffd1471c08a	85 c0 	test eax, eax
0x00007ffd1471c08c	0f 88 13 40 05 00 	js 0x7ffd147700a5
0x00007ffd1471c092	48 8b 5c 24 48 	mov rbx, qword ptr [rsp+0x48]
0x00007ffd1471c097	48 8b 6c 24 50 	mov rbp, qword ptr [rsp+0x50]
0x00007ffd1471c09c	48 8b 74 24 58 	mov rsi, qword ptr [rsp+0x58]
0x00007ffd1471c0a1	48 83 c4 20 	add rsp, 0x20
0x00007ffd1471c0a5	41 5f 	pop r15
0x00007ffd1471c0a7	41 5e 	pop r14
0x00007ffd1471c0a9	5f 	pop rdi
0x00007ffd1471c0aa	c3 	ret 
0x00007ffd146ed987	44 8b c0 	mov r8d, eax
0x00007ffd146ed98a	ba 02 00 00 00 	mov edx, 0x2
0x00007ffd146ed98f	8b d8 	mov ebx, eax
0x00007ffd146ed991	e8 0e 0d 00 00 	call 0x7ffd146ee6a4
0x00007ffd146ee6a4	48 89 5c 24 08 	mov qword ptr [rsp+0x8], rbx
0x00007ffd146ee6a9	48 89 74 24 10 	mov qword ptr [rsp+0x10], rsi
0x00007ffd146ee6ae	57 	push rdi
0x00007ffd146ee6af	48 83 ec 30 	sub rsp, 0x30
0x00007ffd146ee6b3	48 8d 0d 0e 7f 12 00 	lea rcx, ptr [rip+0x127f0e]
0x00007ffd146ee6ba	41 8b d8 	mov ebx, r8d
0x00007ffd146ee6bd	8b fa 	mov edi, edx
0x00007ffd146ee6bf	e8 6c 0b ff ff 	call 0x7ffd146df230
0x00007ffd146df230	48 89 5c 24 18 	mov qword ptr [rsp+0x18], rbx
0x00007ffd146df235	48 89 74 24 20 	mov qword ptr [rsp+0x20], rsi
0x00007ffd146df23a	57 	push rdi
0x00007ffd146df23b	48 83 ec 20 	sub rsp, 0x20
0x00007ffd146df23f	83 69 0c 01 	sub dword ptr [rcx+0xc], 0x1
0x00007ffd146df243	48 8b d9 	mov rbx, rcx
0x00007ffd146df246	75 1b 	jnz 0x7ffd146df263
0x00007ffd146df248	48 c7 41 10 00 00 00 00 	mov qword ptr [rcx+0x10], 0x0
0x00007ffd146df250	b8 fe ff ff ff 	mov eax, 0xfffffffe
0x00007ffd146df255	b9 ff ff ff ff 	mov ecx, 0xffffffff
0x00007ffd146df25a	f0 0f b1 4b 08 	lock cmpxchg dword ptr [rbx+0x8], ecx
0x00007ffd146df25f	8b f0 	mov esi, eax
0x00007ffd146df261	75 13 	jnz 0x7ffd146df276
0x00007ffd146df263	48 8b 5c 24 40 	mov rbx, qword ptr [rsp+0x40]
0x00007ffd146df268	33 c0 	xor eax, eax
0x00007ffd146df26a	48 8b 74 24 48 	mov rsi, qword ptr [rsp+0x48]
0x00007ffd146df26f	48 83 c4 20 	add rsp, 0x20
0x00007ffd146df273	5f 	pop rdi
0x00007ffd146df274	c3 	ret 
0x00007ffd146ee6c4	8b f0 	mov esi, eax
0x00007ffd146ee6c6	85 db 	test ebx, ebx
0x00007ffd146ee6c8	0f 88 42 7d 07 00 	js 0x7ffd14766410
0x00007ffd146ee6ce	e8 7d 61 fe ff 	call 0x7ffd146d4850
0x00007ffd146d4850	65 48 8b 04 25 60 00 00 00 	mov rax, qword ptr gs:[0x60]
0x00007ffd146d4859	48 8b 80 90 00 00 00 	mov rax, qword ptr [rax+0x90]
0x00007ffd146d4860	48 85 c0 	test rax, rax
0x00007ffd146d4863	75 02 	jnz 0x7ffd146d4867
0x00007ffd146d4865	c3 	ret 
0x00007ffd146ee6d3	85 c0 	test eax, eax
0x00007ffd146ee6d5	0f 85 4d 7d 07 00 	jnz 0x7ffd14766428
0x00007ffd146ee6db	b9 84 03 fe 7f 	mov ecx, 0x7ffe0384
0x00007ffd146ee6e0	80 39 00 	cmp byte ptr [rcx], 0x0
0x00007ffd146ee6e3	0f 85 5b 7d 07 00 	jnz 0x7ffd14766444
0x00007ffd146ee6e9	48 8b 5c 24 40 	mov rbx, qword ptr [rsp+0x40]
0x00007ffd146ee6ee	8b c6 	mov eax, esi
0x00007ffd146ee6f0	48 8b 74 24 48 	mov rsi, qword ptr [rsp+0x48]
0x00007ffd146ee6f5	48 83 c4 30 	add rsp, 0x30
0x00007ffd146ee6f9	5f 	pop rdi
0x00007ffd146ee6fa	c3 	ret 
0x00007ffd146ed996	48 8b 74 24 48 	mov rsi, qword ptr [rsp+0x48]
0x00007ffd146ed99b	8b c3 	mov eax, ebx
0x00007ffd146ed99d	48 8b 5c 24 40 	mov rbx, qword ptr [rsp+0x40]
0x00007ffd146ed9a2	48 83 c4 30 	add rsp, 0x30
0x00007ffd146ed9a6	5f 	pop rdi
0x00007ffd146ed9a7	c3 	ret 
0x00007ffd146cfbae	89 03 	mov dword ptr [rbx], eax
0x00007ffd146cfbb0	85 c0 	test eax, eax
0x00007ffd146cfbb2	78 1c 	js 0x7ffd146cfbd0
0x00007ffd146cfbb4	48 8b 54 24 48 	mov rdx, qword ptr [rsp+0x48]
0x00007ffd146cfbb9	49 8b cf 	mov rcx, r15
0x00007ffd146cfbbc	e8 db f9 ff ff 	call 0x7ffd146cf59c
0x00007ffd146cf59c	48 89 5c 24 10 	mov qword ptr [rsp+0x10], rbx
0x00007ffd146cf5a1	48 89 74 24 18 	mov qword ptr [rsp+0x18], rsi
0x00007ffd146cf5a6	57 	push rdi
0x00007ffd146cf5a7	48 83 ec 20 	sub rsp, 0x20
0x00007ffd146cf5ab	33 db 	xor ebx, ebx
0x00007ffd146cf5ad	48 8b f2 	mov rsi, rdx
0x00007ffd146cf5b0	89 5c 24 30 	mov dword ptr [rsp+0x30], ebx
0x00007ffd146cf5b4	48 8b f9 	mov rdi, rcx
0x00007ffd146cf5b7	48 85 c9 	test rcx, rcx
0x00007ffd146cf5ba	74 3b 	jz 0x7ffd146cf5f7
0x00007ffd146cf5f7	48 8b 74 24 40 	mov rsi, qword ptr [rsp+0x40]
0x00007ffd146cf5fc	8b c3 	mov eax, ebx
0x00007ffd146cf5fe	48 8b 5c 24 38 	mov rbx, qword ptr [rsp+0x38]
0x00007ffd146cf603	48 83 c4 20 	add rsp, 0x20
0x00007ffd146cf607	5f 	pop rdi
0x00007ffd146cf608	c3 	ret 
0x00007ffd146cfbc1	89 03 	mov dword ptr [rbx], eax
0x00007ffd146cfbc3	85 c0 	test eax, eax
0x00007ffd146cfbc5	78 09 	js 0x7ffd146cfbd0
0x00007ffd146cfbc7	83 3d ca d5 14 00 00 	cmp dword ptr [rip+0x14d5ca], 0x0
0x00007ffd146cfbce	74 4f 	jz 0x7ffd146cfc1f
0x00007ffd146cfc1f	48 8b 4c 24 48 	mov rcx, qword ptr [rsp+0x48]
0x00007ffd146cfc24	e8 1f fd fe ff 	call 0x7ffd146bf948
0x00007ffd146bf948	48 89 5c 24 08 	mov qword ptr [rsp+0x8], rbx
0x00007ffd146bf94d	57 	push rdi
0x00007ffd146bf94e	48 83 ec 20 	sub rsp, 0x20
0x00007ffd146bf952	48 8b d9 	mov rbx, rcx
0x00007ffd146bf955	33 ff 	xor edi, edi
0x00007ffd146bf957	48 8d 0d 02 d9 15 00 	lea rcx, ptr [rip+0x15d902]
0x00007ffd146bf95e	e8 3d 97 01 00 	call 0x7ffd146d90a0
0x00007ffd146d90a0	40 55 	push rbp
0x00007ffd146d90a2	56 	push rsi
0x00007ffd146d90a3	48 83 ec 58 	sub rsp, 0x58
0x00007ffd146d90a7	33 ed 	xor ebp, ebp
0x00007ffd146d90a9	48 8b f1 	mov rsi, rcx
0x00007ffd146d90ac	89 6c 24 70 	mov dword ptr [rsp+0x70], ebp
0x00007ffd146d90b0	f0 48 0f ba 29 00 	lock bts qword ptr [rcx], 0x0
0x00007ffd146d90b6	72 08 	jb 0x7ffd146d90c0
0x00007ffd146d90b8	48 83 c4 58 	add rsp, 0x58
0x00007ffd146d90bc	5e 	pop rsi
0x00007ffd146d90bd	5d 	pop rbp
0x00007ffd146d90be	c3 	ret 
0x00007ffd146bf963	48 8b 8b 98 00 00 00 	mov rcx, qword ptr [rbx+0x98]
0x00007ffd146bf96a	83 79 18 ff 	cmp dword ptr [rcx+0x18], 0xffffffff
0x00007ffd146bf96e	75 1a 	jnz 0x7ffd146bf98a
0x00007ffd146bf98a	48 8b 01 	mov rax, qword ptr [rcx]
0x00007ffd146bf98d	f6 40 c8 20 	test byte ptr [rax-0x38], 0x20
0x00007ffd146bf991	75 dd 	jnz 0x7ffd146bf970
0x00007ffd146bf993	39 79 18 	cmp dword ptr [rcx+0x18], edi
0x00007ffd146bf996	74 07 	jz 0x7ffd146bf99f
0x00007ffd146bf998	e8 4f b2 06 00 	call 0x7ffd1472abec
0x00007ffd1472abec	48 89 5c 24 08 	mov qword ptr [rsp+0x8], rbx
0x00007ffd1472abf1	57 	push rdi
0x00007ffd1472abf2	48 83 ec 20 	sub rsp, 0x20
0x00007ffd1472abf6	83 ca ff 	or edx, 0xffffffff
0x00007ffd1472abf9	39 51 18 	cmp dword ptr [rcx+0x18], edx
0x00007ffd1472abfc	74 1e 	jz 0x7ffd1472ac1c
0x00007ffd1472abfe	48 8b 01 	mov rax, qword ptr [rcx]
0x00007ffd1472ac01	f6 40 c8 20 	test byte ptr [rax-0x38], 0x20
0x00007ffd1472ac05	75 15 	jnz 0x7ffd1472ac1c
0x00007ffd1472ac07	89 51 18 	mov dword ptr [rcx+0x18], edx
0x00007ffd1472ac0a	ba ff ff 00 00 	mov edx, 0xffff
0x00007ffd1472ac0f	66 89 50 cc 	mov word ptr [rax-0x34], dx
0x00007ffd1472ac13	48 8b 79 28 	mov rdi, qword ptr [rcx+0x28]
0x00007ffd1472ac17	48 85 ff 	test rdi, rdi
0x00007ffd1472ac1a	75 0c 	jnz 0x7ffd1472ac28
0x00007ffd1472ac28	48 8b df 	mov rbx, rdi
0x00007ffd1472ac2b	48 8b 1b 	mov rbx, qword ptr [rbx]
0x00007ffd1472ac2e	48 8b 4b 08 	mov rcx, qword ptr [rbx+0x8]
0x00007ffd1472ac32	e8 b5 ff ff ff 	call 0x7ffd1472abec
0x00007ffd1472abec	48 89 5c 24 08 	mov qword ptr [rsp+0x8], rbx
0x00007ffd1472abf1	57 	push rdi
0x00007ffd1472abf2	48 83 ec 20 	sub rsp, 0x20
0x00007ffd1472abf6	83 ca ff 	or edx, 0xffffffff
0x00007ffd1472abf9	39 51 18 	cmp dword ptr [rcx+0x18], edx
0x00007ffd1472abfc	74 1e 	jz 0x7ffd1472ac1c
0x00007ffd1472abfe	48 8b 01 	mov rax, qword ptr [rcx]
0x00007ffd1472ac01	f6 40 c8 20 	test byte ptr [rax-0x38], 0x20
0x00007ffd1472ac05	75 15 	jnz 0x7ffd1472ac1c
0x00007ffd1472ac07	89 51 18 	mov dword ptr [rcx+0x18], edx
0x00007ffd1472ac0a	ba ff ff 00 00 	mov edx, 0xffff
0x00007ffd1472ac0f	66 89 50 cc 	mov word ptr [rax-0x34], dx
0x00007ffd1472ac13	48 8b 79 28 	mov rdi, qword ptr [rcx+0x28]
0x00007ffd1472ac17	48 85 ff 	test rdi, rdi
0x00007ffd1472ac1a	75 0c 	jnz 0x7ffd1472ac28
0x00007ffd1472ac1c	48 8b 5c 24 30 	mov rbx, qword ptr [rsp+0x30]
0x00007ffd1472ac21	48 83 c4 20 	add rsp, 0x20
0x00007ffd1472ac25	5f 	pop rdi
0x00007ffd1472ac26	c3 	ret 
0x00007ffd1472ac37	48 3b df 	cmp rbx, rdi
0x00007ffd1472ac3a	74 e0 	jz 0x7ffd1472ac1c
0x00007ffd1472ac1c	48 8b 5c 24 30 	mov rbx, qword ptr [rsp+0x30]
0x00007ffd1472ac21	48 83 c4 20 	add rsp, 0x20
0x00007ffd1472ac25	5f 	pop rdi
0x00007ffd1472ac26	c3 	ret 
0x00007ffd146bf99d	eb d1 	jmp 0x7ffd146bf970
0x00007ffd146bf970	48 8d 0d e9 d8 15 00 	lea rcx, ptr [rip+0x15d8e9]
0x00007ffd146bf977	e8 f4 32 00 00 	call 0x7ffd146c2c70
0x00007ffd146c2c70	33 d2 	xor edx, edx
0x00007ffd146c2c72	8d 42 01 	lea eax, ptr [rdx+0x1]
0x00007ffd146c2c75	f0 48 0f b1 11 	lock cmpxchg qword ptr [rcx], rdx
0x00007ffd146c2c7a	75 02 	jnz 0x7ffd146c2c7e
0x00007ffd146c2c7c	c3 	ret 
0x00007ffd146bf97c	48 8b 5c 24 30 	mov rbx, qword ptr [rsp+0x30]
0x00007ffd146bf981	8b c7 	mov eax, edi
0x00007ffd146bf983	48 83 c4 20 	add rsp, 0x20
0x00007ffd146bf987	5f 	pop rdi
0x00007ffd146bf988	c3 	ret 
0x00007ffd146cfc29	eb a5 	jmp 0x7ffd146cfbd0
0x00007ffd146cfbd0	48 8b d3 	mov rdx, rbx
0x00007ffd146cfbd3	48 8b 4c 24 48 	mov rcx, qword ptr [rsp+0x48]
0x00007ffd146cfbd8	48 8b 89 98 00 00 00 	mov rcx, qword ptr [rcx+0x98]
0x00007ffd146cfbdf	e8 6c 6a 04 00 	call 0x7ffd14716650
0x00007ffd14716650	48 89 5c 24 08 	mov qword ptr [rsp+0x8], rbx
0x00007ffd14716655	48 89 74 24 10 	mov qword ptr [rsp+0x10], rsi
0x00007ffd1471665a	57 	push rdi
0x00007ffd1471665b	48 83 ec 20 	sub rsp, 0x20
0x00007ffd1471665f	48 8b 19 	mov rbx, qword ptr [rcx]
0x00007ffd14716662	48 8b f2 	mov rsi, rdx
0x00007ffd14716665	48 81 eb a0 00 00 00 	sub rbx, 0xa0
0x00007ffd1471666c	48 8b f9 	mov rdi, rcx
0x00007ffd1471666f	48 8b 83 b0 00 00 00 	mov rax, qword ptr [rbx+0xb0]
0x00007ffd14716676	48 85 c0 	test rax, rax
0x00007ffd14716679	74 2e 	jz 0x7ffd147166a9
0x00007ffd1471667b	48 39 50 28 	cmp qword ptr [rax+0x28], rdx
0x00007ffd1471667f	75 28 	jnz 0x7ffd147166a9
0x00007ffd14716681	48 8b 8b b0 00 00 00 	mov rcx, qword ptr [rbx+0xb0]
0x00007ffd14716688	e8 57 00 00 00 	call 0x7ffd147166e4
0x00007ffd147166e4	48 89 5c 24 08 	mov qword ptr [rsp+0x8], rbx
0x00007ffd147166e9	57 	push rdi
0x00007ffd147166ea	48 83 ec 20 	sub rsp, 0x20
0x00007ffd147166ee	48 8b 41 38 	mov rax, qword ptr [rcx+0x38]
0x00007ffd147166f2	48 8b d9 	mov rbx, rcx
0x00007ffd147166f5	48 83 a0 b0 00 00 00 00 	and qword ptr [rax+0xb0], 0x0
0x00007ffd147166fd	e8 82 00 00 00 	call 0x7ffd14716784
0x00007ffd14716784	40 53 	push rbx
0x00007ffd14716786	48 83 ec 20 	sub rsp, 0x20
0x00007ffd1471678a	48 8b d9 	mov rbx, rcx
0x00007ffd1471678d	48 8b 49 50 	mov rcx, qword ptr [rcx+0x50]
0x00007ffd14716791	48 85 c9 	test rcx, rcx
0x00007ffd14716794	75 07 	jnz 0x7ffd1471679d
0x00007ffd14716796	48 83 c4 20 	add rsp, 0x20
0x00007ffd1471679a	5b 	pop rbx
0x00007ffd1471679b	c3 	ret 
0x00007ffd14716702	4c 8b 43 58 	mov r8, qword ptr [rbx+0x58]
0x00007ffd14716706	4d 85 c0 	test r8, r8
0x00007ffd14716709	74 39 	jz 0x7ffd14716744
0x00007ffd1471670b	33 ff 	xor edi, edi
0x00007ffd1471670d	39 7b 60 	cmp dword ptr [rbx+0x60], edi
0x00007ffd14716710	76 24 	jbe 0x7ffd14716736
0x00007ffd14716712	48 8b 43 58 	mov rax, qword ptr [rbx+0x58]
0x00007ffd14716716	48 8b 0c f8 	mov rcx, qword ptr [rax+rdi*8]
0x00007ffd1471671a	48 85 c9 	test rcx, rcx
0x00007ffd1471671d	74 0c 	jz 0x7ffd1471672b
0x00007ffd1471671f	48 8b 81 b0 00 00 00 	mov rax, qword ptr [rcx+0xb0]
0x00007ffd14716726	48 85 c0 	test rax, rax
0x00007ffd14716729	75 3f 	jnz 0x7ffd1471676a
0x00007ffd1471672b	ff c7 	inc edi
0x00007ffd1471672d	3b 7b 60 	cmp edi, dword ptr [rbx+0x60]
0x00007ffd14716730	72 e0 	jb 0x7ffd14716712
0x00007ffd14716712	48 8b 43 58 	mov rax, qword ptr [rbx+0x58]
0x00007ffd14716716	48 8b 0c f8 	mov rcx, qword ptr [rax+rdi*8]
0x00007ffd1471671a	48 85 c9 	test rcx, rcx
0x00007ffd1471671d	74 0c 	jz 0x7ffd1471672b
0x00007ffd1471671f	48 8b 81 b0 00 00 00 	mov rax, qword ptr [rcx+0xb0]
0x00007ffd14716726	48 85 c0 	test rax, rax
0x00007ffd14716729	75 3f 	jnz 0x7ffd1471676a
0x00007ffd1471672b	ff c7 	inc edi
0x00007ffd1471672d	3b 7b 60 	cmp edi, dword ptr [rbx+0x60]
0x00007ffd14716730	72 e0 	jb 0x7ffd14716712
0x00007ffd14716712	48 8b 43 58 	mov rax, qword ptr [rbx+0x58]
0x00007ffd14716716	48 8b 0c f8 	mov rcx, qword ptr [rax+rdi*8]
0x00007ffd1471671a	48 85 c9 	test rcx, rcx
0x00007ffd1471671d	74 0c 	jz 0x7ffd1471672b
0x00007ffd1471671f	48 8b 81 b0 00 00 00 	mov rax, qword ptr [rcx+0xb0]
0x00007ffd14716726	48 85 c0 	test rax, rax
0x00007ffd14716729	75 3f 	jnz 0x7ffd1471676a
0x00007ffd1471676a	f7 40 20 00 00 08 00 	test dword ptr [rax+0x20], 0x80000
0x00007ffd14716771	75 b8 	jnz 0x7ffd1471672b
0x00007ffd14716773	48 39 48 38 	cmp qword ptr [rax+0x38], rcx
0x00007ffd14716777	74 b2 	jz 0x7ffd1471672b
0x00007ffd1471672b	ff c7 	inc edi
0x00007ffd1471672d	3b 7b 60 	cmp edi, dword ptr [rbx+0x60]
0x00007ffd14716730	72 e0 	jb 0x7ffd14716712
0x00007ffd14716712	48 8b 43 58 	mov rax, qword ptr [rbx+0x58]
0x00007ffd14716716	48 8b 0c f8 	mov rcx, qword ptr [rax+rdi*8]
0x00007ffd1471671a	48 85 c9 	test rcx, rcx
0x00007ffd1471671d	74 0c 	jz 0x7ffd1471672b
0x00007ffd1471671f	48 8b 81 b0 00 00 00 	mov rax, qword ptr [rcx+0xb0]
0x00007ffd14716726	48 85 c0 	test rax, rax
0x00007ffd14716729	75 3f 	jnz 0x7ffd1471676a
0x00007ffd1471676a	f7 40 20 00 00 08 00 	0ßj     rd ptr [rax+0x20], 0x80000
0x00007ffd14716771	75 b8 	jnz 0x7ffd1471672b
0x00007ffd14716773	48 39 48 38 	cmp qword ptr [rax+0x38], rcx
0x00007ffd14716777	74 b2 	jz 0x7ffd1471672b
0x00007ffd1471672b	ff c7 	inc edi
0x00007ffd1471672d	3b 7b 60 	cmp edi, dword ptr [rbx+0x60]
0x00007ffd14716730	72 e0 	jb 0x7ffd14716712
0x00007ffd14716712	48 8b 43 58 	mov rax, qword ptr [rbx+0x58]
0x00007ffd14716716	48 8b 0c f8 	mov rcx, qword ptr [rax+rdi*8]
0x00007ffd1471671a	48 85 c9 	test rcx, rcx
0x00007ffd1471671d	74 0c 	jz 0x7ffd1471672b
0x00007ffd1471671f	48 8b 81 b0 00 00 00 	mov rax, qword ptr [rcx+0xb0]
0x00007ffd14716726	48 85 c0 	test rax, rax
0x00007ffd14716729	75 3f 	jnz 0x7ffd1471676a
0x00007ffd1471676a	f7 40 20 00 00 08 00 	xâj     rd ptr [rax+0x20], 0x80000
0x00007ffd14716771	75 b8 	jnz 0x7ffd1471672b
0x00007ffd14716773	48 39 48 38 	cmp qword ptr [rax+0x38], rcx
0x00007ffd14716777	74 b2 	jz 0x7ffd1471672b
0x00007ffd1471672b	ff c7 	inc edi
0x00007ffd1471672d	3b 7b 60 	cmp edi, dword ptr [rbx+0x60]
0x00007ffd14716730	72 e0 	jb 0x7ffd14716712
0x00007ffd14716712	48 8b 43 58 	mov rax, qword ptr [rbx+0x58]
0x00007ffd14716716	48 8b 0c f8 	mov rcx, qword ptr [rax+rdi*8]
0x00007ffd1471671a	48 85 c9 	test rcx, rcx
0x00007ffd1471671d	74 0c 	jz 0x7ffd1471672b
0x00007ffd1471671f	48 8b 81 b0 00 00 00 	mov rax, qword ptr [rcx+0xb0]
0x00007ffd14716726	48 85 c0 	test rax, rax
0x00007ffd14716729	75 3f 	jnz 0x7ffd1471676a
0x00007ffd1471676a	f7 40 20 00 00 08 00 	(Ýj     rd ptr [rax+0x20], 0x80000
0x00007ffd14716771	75 b8 	jnz 0x7ffd1471672b
0x00007ffd14716773	48 39 48 38 	cmp qword ptr [rax+0x38], rcx
0x00007ffd14716777	74 b2 	jz 0x7ffd1471672b
0x00007ffd1471672b	ff c7 	inc edi
0x00007ffd1471672d	3b 7b 60 	cmp edi, dword ptr [rbx+0x60]
0x00007ffd14716730	72 e0 	jb 0x7ffd14716712
0x00007ffd14716712	48 8b 43 58 	mov rax, qword ptr [rbx+0x58]
0x00007ffd14716716	48 8b 0c f8 	mov rcx, qword ptr [rax+rdi*8]
0x00007ffd1471671a	48 85 c9 	test rcx, rcx
0x00007ffd1471671d	74 0c 	jz 0x7ffd1471672b
0x00007ffd1471671f	48 8b 81 b0 00 00 00 	mov rax, qword ptr [rcx+0xb0]
0x00007ffd14716726	48 85 c0 	test rax, rax
0x00007ffd14716729	75 3f 	jnz 0x7ffd1471676a
0x00007ffd1471676a	f7 40 20 00 00 08 00 	(Ýj     rd ptr [rax+0x20], 0x80000
0x00007ffd14716771	75 b8 	jnz 0x7ffd1471672b
0x00007ffd14716773	48 39 48 38 	cmp qword ptr [rax+0x38], rcx
0x00007ffd14716777	74 b2 	jz 0x7ffd1471672b
0x00007ffd1471672b	ff c7 	inc edi
0x00007ffd1471672d	3b 7b 60 	cmp edi, dword ptr [rbx+0x60]
0x00007ffd14716730	72 e0 	jb 0x7ffd14716712
0x00007ffd14716712	48 8b 43 58 	mov rax, qword ptr [rbx+0x58]
0x00007ffd14716716	48 8b 0c f8 	mov rcx, qword ptr [rax+rdi*8]
0x00007ffd1471671a	48 85 c9 	test rcx, rcx
0x00007ffd1471671d	74 0c 	jz 0x7ffd1471672b
0x00007ffd1471671f	48 8b 81 b0 00 00 00 	mov rax, qword ptr [rcx+0xb0]
0x00007ffd14716726	48 85 c0 	test rax, rax
0x00007ffd14716729	75 3f 	jnz 0x7ffd1471676a
0x00007ffd1471676a	f7 40 20 00 00 08 00 	(Ýj     rd ptr [rax+0x20], 0x80000
0x00007ffd14716771	75 b8 	jnz 0x7ffd1471672b
0x00007ffd14716773	48 39 48 38 	cmp qword ptr [rax+0x38], rcx
0x00007ffd14716777	74 b2 	jz 0x7ffd1471672b
0x00007ffd1471672b	ff c7 	inc edi
0x00007ffd1471672d	3b 7b 60 	cmp edi, dword ptr [rbx+0x60]
0x00007ffd14716730	72 e0 	jb 0x7ffd14716712
0x00007ffd14716712	48 8b 43 58 	mov rax, qword ptr [rbx+0x58]
0x00007ffd14716716	48 8b 0c f8 	mov rcx, qword ptr [rax+rdi*8]
0x00007ffd1471671a	48 85 c9 	test rcx, rcx
0x00007ffd1471671d	74 0c 	jz 0x7ffd1471672b
0x00007ffd1471671f	48 8b 81 b0 00 00 00 	mov rax, qword ptr [rcx+0xb0]
0x00007ffd14716726	48 85 c0 	test rax, rax
0x00007ffd14716729	75 3f 	jnz 0x7ffd1471676a
0x00007ffd1471676a	f7 40 20 00 00 08 00 	(Ýj     rd ptr [rax+0x20], 0x80000
0x00007ffd14716771	75 b8 	jnz 0x7ffd1471672b
0x00007ffd14716773	48 39 48 38 	cmp qword ptr [rax+0x38], rcx
0x00007ffd14716777	74 b2 	jz 0x7ffd1471672b
0x00007ffd1471672b	ff c7 	inc edi
0x00007ffd1471672d	3b 7b 60 	cmp edi, dword ptr [rbx+0x60]
0x00007ffd14716730	72 e0 	jb 0x7ffd14716712
0x00007ffd14716712	48 8b 43 58 	mov rax, qword ptr [rbx+0x58]
0x00007ffd14716716	48 8b 0c f8 	mov rcx, qword ptr [rax+rdi*8]
0x00007ffd1471671a	48 85 c9 	test rcx, rcx
0x00007ffd1471671d	74 0c 	jz 0x7ffd1471672b
0x00007ffd1471671f	48 8b 81 b0 00 00 00 	mov rax, qword ptr [rcx+0xb0]
0x00007ffd14716726	48 85 c0 	test rax, rax
0x00007ffd14716729	75 3f 	jnz 0x7ffd1471676a
0x00007ffd1471676a	f7 40 20 00 00 08 00 	(Ýj     rd ptr [rax+0x20], 0x80000
0x00007ffd14716771	75 b8 	jnz 0x7ffd1471672b
0x00007ffd14716773	48 39 48 38 	cmp qword ptr [rax+0x38], rcx
0x00007ffd14716777	74 b2 	jz 0x7ffd1471672b
0x00007ffd1471672b	ff c7 	inc edi
0x00007ffd1471672d	3b 7b 60 	cmp edi, dword ptr [rbx+0x60]
0x00007ffd14716730	72 e0 	jb 0x7ffd14716712
0x00007ffd14716712	48 8b 43 58 	mov rax, qword ptr [rbx+0x58]
0x00007ffd14716716	48 8b 0c f8 	mov rcx, qword ptr [rax+rdi*8]
0x00007ffd1471671a	48 85 c9 	test rcx, rcx
0x00007ffd1471671d	74 0c 	jz 0x7ffd1471672b
0x00007ffd1471671f	48 8b 81 b0 00 00 00 	mov rax, qword ptr [rcx+0xb0]
0x00007ffd14716726	48 85 c0 	test rax, rax
0x00007ffd14716729	75 3f 	jnz 0x7ffd1471676a
0x00007ffd1471676a	f7 40 20 00 00 08 00 	(Ýj     rd ptr [rax+0x20], 0x80000
0x00007ffd14716771	75 b8 	jnz 0x7ffd1471672b
0x00007ffd14716773	48 39 48 38 	cmp qword ptr [rax+0x38], rcx
0x00007ffd14716777	74 b2 	jz 0x7ffd1471672b
0x00007ffd1471672b	ff c7 	inc edi
0x00007ffd1471672d	3b 7b 60 	cmp edi, dword ptr [rbx+0x60]
0x00007ffd14716730	72 e0 	jb 0x7ffd14716712
0x00007ffd14716712	48 8b 43 58 	mov rax, qword ptr [rbx+0x58]
0x00007ffd14716716	48 8b 0c f8 	mov rcx, qword ptr [rax+rdi*8]
0x00007ffd1471671a	48 85 c9 	test rcx, rcx
0x00007ffd1471671d	74 0c 	jz 0x7ffd1471672b
0x00007ffd1471671f	48 8b 81 b0 00 00 00 	mov rax, qword ptr [rcx+0xb0]
0x00007ffd14716726	48 85 c0 	test rax, rax
0x00007ffd14716729	75 3f 	jnz 0x7ffd1471676a
0x00007ffd1471676a	f7 40 20 00 00 08 00 	(Ýj     rd ptr [rax+0x20], 0x80000
0x00007ffd14716771	75 b8 	jnz 0x7ffd1471672b
0x00007ffd14716773	48 39 48 38 	cmp qword ptr [rax+0x38], rcx
0x00007ffd14716777	74 b2 	jz 0x7ffd1471672b
0x00007ffd1471672b	ff c7 	inc edi
0x00007ffd1471672d	3b 7b 60 	cmp edi, dword ptr [rbx+0x60]
0x00007ffd14716730	72 e0 	jb 0x7ffd14716712
0x00007ffd14716712	48 8b 43 58 	mov rax, qword ptr [rbx+0x58]
0x00007ffd14716716	48 8b 0c f8 	mov rcx, qword ptr [rax+rdi*8]
0x00007ffd1471671a	48 85 c9 	test rcx, rcx
0x00007ffd1471671d	74 0c 	jz 0x7ffd1471672b
0x00007ffd1471671f	48 8b 81 b0 00 00 00 	mov rax, qword ptr [rcx+0xb0]
0x00007ffd14716726	48 85 c0 	test rax, rax
0x00007ffd14716729	75 3f 	jnz 0x7ffd1471676a
0x00007ffd1471676a	f7 40 20 00 00 08 00 	(Ýj     rd ptr [rax+0x20], 0x80000
0x00007ffd14716771	75 b8 	jnz 0x7ffd1471672b
0x00007ffd14716773	48 39 48 38 	cmp qword ptr [rax+0x38], rcx
0x00007ffd14716777	74 b2 	jz 0x7ffd1471672b
0x00007ffd1471672b	ff c7 	inc edi
0x00007ffd1471672d	3b 7b 60 	cmp edi, dword ptr [rbx+0x60]
0x00007ffd14716730	72 e0 	jb 0x7ffd14716712
0x00007ffd14716712	48 8b 43 58 	mov rax, qword ptr [rbx+0x58]
0x00007ffd14716716	48 8b 0c f8 	mov rcx, qword ptr [rax+rdi*8]
0x00007ffd1471671a	48 85 c9 	test rcx, rcx
0x00007ffd1471671d	74 0c 	jz 0x7ffd1471672b
0x00007ffd1471671f	48 8b 81 b0 00 00 00 	mov rax, qword ptr [rcx+0xb0]
0x00007ffd14716726	48 85 c0 	test rax, rax
0x00007ffd14716729	75 3f 	jnz 0x7ffd1471676a
0x00007ffd1471676a	f7 40 20 00 00 08 00 	(Ýj     rd ptr [rax+0x20], 0x80000
0x00007ffd14716771	75 b8 	jnz 0x7ffd1471672b
0x00007ffd14716773	48 39 48 38 	cmp qword ptr [rax+0x38], rcx
0x00007ffd14716777	74 b2 	jz 0x7ffd1471672b
0x00007ffd1471672b	ff c7 	inc edi
0x00007ffd1471672d	3b 7b 60 	cmp edi, dword ptr [rbx+0x60]
0x00007ffd14716730	72 e0 	jb 0x7ffd14716712
0x00007ffd14716712	48 8b 43 58 	mov rax, qword ptr [rbx+0x58]
0x00007ffd14716716	48 8b 0c f8 	mov rcx, qword ptr [rax+rdi*8]
0x00007ffd1471671a	48 85 c9 	test rcx, rcx
0x00007ffd1471671d	74 0c 	jz 0x7ffd1471672b
0x00007ffd1471671f	48 8b 81 b0 00 00 00 	mov rax, qword ptr [rcx+0xb0]
0x00007ffd14716726	48 85 c0 	test rax, rax
0x00007ffd14716729	75 3f 	jnz 0x7ffd1471676a
0x00007ffd1471676a	f7 40 20 00 00 08 00 	(Ýj     rd ptr [rax+0x20], 0x80000
0x00007ffd14716771	75 b8 	jnz 0x7ffd1471672b
0x00007ffd14716773	48 39 48 38 	cmp qword ptr [rax+0x38], rcx
0x00007ffd14716777	74 b2 	jz 0x7ffd1471672b
0x00007ffd1471672b	ff c7 	inc edi
0x00007ffd1471672d	3b 7b 60 	cmp edi, dword ptr [rbx+0x60]
0x00007ffd14716730	72 e0 	jb 0x7ffd14716712
0x00007ffd14716712	48 8b 43 58 	mov rax, qword ptr [rbx+0x58]
0x00007ffd14716716	48 8b 0c f8 	mov rcx, qword ptr [rax+rdi*8]
0x00007ffd1471671a	48 85 c9 	test rcx, rcx
0x00007ffd1471671d	74 0c 	jz 0x7ffd1471672b
0x00007ffd1471671f	48 8b 81 b0 00 00 00 	mov rax, qword ptr [rcx+0xb0]
0x00007ffd14716726	48 85 c0 	test rax, rax
0x00007ffd14716729	75 3f 	jnz 0x7ffd1471676a
0x00007ffd1471676a	f7 40 20 00 00 08 00 	(Ýj     rd ptr [rax+0x20], 0x80000
0x00007ffd14716771	75 b8 	jnz 0x7ffd1471672b
0x00007ffd14716773	48 39 48 38 	cmp qword ptr [rax+0x38], rcx
0x00007ffd14716777	74 b2 	jz 0x7ffd1471672b
0x00007ffd1471672b	ff c7 	inc edi
0x00007ffd1471672d	3b 7b 60 	cmp edi, dword ptr [rbx+0x60]
0x00007ffd14716730	72 e0 	jb 0x7ffd14716712
0x00007ffd14716712	48 8b 43 58 	mov rax, qword ptr [rbx+0x58]
0x00007ffd14716716	48 8b 0c f8 	mov rcx, qword ptr [rax+rdi*8]
0x00007ffd1471671a	48 85 c9 	test rcx, rcx
0x00007ffd1471671d	74 0c 	jz 0x7ffd1471672b
0x00007ffd1471671f	48 8b 81 b0 00 00 00 	mov rax, qword ptr [rcx+0xb0]
0x00007ffd14716726	48 85 c0 	test rax, rax
0x00007ffd14716729	75 3f 	jnz 0x7ffd1471676a
0x00007ffd1471676a	f7 40 20 00 00 08 00 	(Ýj     rd ptr [rax+0x20], 0x80000
0x00007ffd14716771	75 b8 	jnz 0x7ffd1471672b
0x00007ffd14716773	48 39 48 38 	cmp qword ptr [rax+0x38], rcx
0x00007ffd14716777	74 b2 	jz 0x7ffd1471672b
0x00007ffd1471672b	ff c7 	inc edi
0x00007ffd1471672d	3b 7b 60 	cmp edi, dword ptr [rbx+0x60]
0x00007ffd14716730	72 e0 	jb 0x7ffd14716712
0x00007ffd14716712	48 8b 43 58 	mov rax, qword ptr [rbx+0x58]
0x00007ffd14716716	48 8b 0c f8 	mov rcx, qword ptr [rax+rdi*8]
0x00007ffd1471671a	48 85 c9 	test rcx, rcx
0x00007ffd1471671d	74 0c 	jz 0x7ffd1471672b
0x00007ffd1471671f	48 8b 81 b0 00 00 00 	mov rax, qword ptr [rcx+0xb0]
0x00007ffd14716726	48 85 c0 	test rax, rax
0x00007ffd14716729	75 3f 	jnz 0x7ffd1471676a
0x00007ffd1471676a	f7 40 20 00 00 08 00 	(Ýj     rd ptr [rax+0x20], 0x80000
0x00007ffd14716771	75 b8 	jnz 0x7ffd1471672b
0x00007ffd14716773	48 39 48 38 	cmp qword ptr [rax+0x38], rcx
0x00007ffd14716777	74 b2 	jz 0x7ffd1471672b
0x00007ffd1471672b	ff c7 	inc edi
0x00007ffd1471672d	3b 7b 60 	cmp edi, dword ptr [rbx+0x60]
0x00007ffd14716730	72 e0 	jb 0x7ffd14716712
0x00007ffd14716712	48 8b 43 58 	mov rax, qword ptr [rbx+0x58]
0x00007ffd14716716	48 8b 0c f8 	mov rcx, qword ptr [rax+rdi*8]
0x00007ffd1471671a	48 85 c9 	test rcx, rcx
0x00007ffd1471671d	74 0c 	jz 0x7ffd1471672b
0x00007ffd1471671f	48 8b 81 b0 00 00 00 	mov rax, qword ptr [rcx+0xb0]
0x00007ffd14716726	48 85 c0 	test rax, rax
0x00007ffd14716729	75 3f 	jnz 0x7ffd1471676a
0x00007ffd1471676a	f7 40 20 00 00 08 00 	(Ýj     rd ptr [rax+0x20], 0x80000
0x00007ffd14716771	75 b8 	jnz 0x7ffd1471672b
0x00007ffd14716773	48 39 48 38 	cmp qword ptr [rax+0x38], rcx
0x00007ffd14716777	74 b2 	jz 0x7ffd1471672b
0x00007ffd1471672b	ff c7 	inc edi
0x00007ffd1471672d	3b 7b 60 	cmp edi, dword ptr [rbx+0x60]
0x00007ffd14716730	72 e0 	jb 0x7ffd14716712
0x00007ffd14716712	48 8b 43 58 	mov rax, qword ptr [rbx+0x58]
0x00007ffd14716716	48 8b 0c f8 	mov rcx, qword ptr [rax+rdi*8]
0x00007ffd1471671a	48 85 c9 	test rcx, rcx
0x00007ffd1471671d	74 0c 	jz 0x7ffd1471672b
0x00007ffd1471671f	48 8b 81 b0 00 00 00 	mov rax, qword ptr [rcx+0xb0]
0x00007ffd14716726	48 85 c0 	test rax, rax
0x00007ffd14716729	75 3f 	jnz 0x7ffd1471676a
0x00007ffd1471676a	f7 40 20 00 00 08 00 	(Ýj     rd ptr [rax+0x20], 0x80000
0x00007ffd14716771	75 b8 	jnz 0x7ffd1471672b
0x00007ffd14716773	48 39 48 38 	cmp qword ptr [rax+0x38], rcx
0x00007ffd14716777	74 b2 	jz 0x7ffd1471672b
0x00007ffd1471672b	ff c7 	inc edi
0x00007ffd1471672d	3b 7b 60 	cmp edi, dword ptr [rbx+0x60]
0x00007ffd14716730	72 e0 	jb 0x7ffd14716712
0x00007ffd14716712	48 8b 43 58 	mov rax, qword ptr [rbx+0x58]
0x00007ffd14716716	48 8b 0c f8 	mov rcx, qword ptr [rax+rdi*8]
0x00007ffd1471671a	48 85 c9 	test rcx, rcx
0x00007ffd1471671d	74 0c 	jz 0x7ffd1471672b
0x00007ffd1471671f	48 8b 81 b0 00 00 00 	mov rax, qword ptr [rcx+0xb0]
0x00007ffd14716726	48 85 c0 	test rax, rax
0x00007ffd14716729	75 3f 	jnz 0x7ffd1471676a
0x00007ffd1471676a	f7 40 20 00 00 08 00 	(Ýj     rd ptr [rax+0x20], 0x80000
0x00007ffd14716771	75 b8 	jnz 0x7ffd1471672b
0x00007ffd14716773	48 39 48 38 	cmp qword ptr [rax+0x38], rcx
0x00007ffd14716777	74 b2 	jz 0x7ffd1471672b
0x00007ffd1471672b	ff c7 	inc edi
0x00007ffd1471672d	3b 7b 60 	cmp edi, dword ptr [rbx+0x60]
0x00007ffd14716730	72 e0 	jb 0x7ffd14716712
0x00007ffd14716712	48 8b 43 58 	mov rax, qword ptr [rbx+0x58]
0x00007ffd14716716	48 8b 0c f8 	mov rcx, qword ptr [rax+rdi*8]
0x00007ffd1471671a	48 85 c9 	test rcx, rcx
0x00007ffd1471671d	74 0c 	jz 0x7ffd1471672b
0x00007ffd1471671f	48 8b 81 b0 00 00 00 	mov rax, qword ptr [rcx+0xb0]
0x00007ffd14716726	48 85 c0 	test rax, rax
0x00007ffd14716729	75 3f 	jnz 0x7ffd1471676a
0x00007ffd1471676a	f7 40 20 00 00 08 00 	(Ýj     rd ptr [rax+0x20], 0x80000
0x00007ffd14716771	75 b8 	jnz 0x7ffd1471672b
0x00007ffd14716773	48 39 48 38 	cmp qword ptr [rax+0x38], rcx
0x00007ffd14716777	74 b2 	jz 0x7ffd1471672b
0x00007ffd1471672b	ff c7 	inc edi
0x00007ffd1471672d	3b 7b 60 	cmp edi, dword ptr [rbx+0x60]
0x00007ffd14716730	72 e0 	jb 0x7ffd14716712
0x00007ffd14716712	48 8b 43 58 	mov rax, qword ptr [rbx+0x58]
0x00007ffd14716716	48 8b 0c f8 	mov rcx, qword ptr [rax+rdi*8]
0x00007ffd1471671a	48 85 c9 	test rcx, rcx
0x00007ffd1471671d	74 0c 	jz 0x7ffd1471672b
0x00007ffd1471671f	48 8b 81 b0 00 00 00 	mov rax, qword ptr [rcx+0xb0]
0x00007ffd14716726	48 85 c0 	test rax, rax
0x00007ffd14716729	75 3f 	jnz 0x7ffd1471676a
0x00007ffd1471676a	f7 40 20 00 00 08 00 	(Ýj     rd ptr [rax+0x20], 0x80000
0x00007ffd14716771	75 b8 	jnz 0x7ffd1471672b
0x00007ffd14716773	48 39 48 38 	cmp qword ptr [rax+0x38], rcx
0x00007ffd14716777	74 b2 	jz 0x7ffd1471672b
0x00007ffd1471672b	ff c7 	inc edi
0x00007ffd1471672d	3b 7b 60 	cmp edi, dword ptr [rbx+0x60]
0x00007ffd14716730	72 e0 	jb 0x7ffd14716712
0x00007ffd14716712	48 8b 43 58 	mov rax, qword ptr [rbx+0x58]
0x00007ffd14716716	48 8b 0c f8 	mov rcx, qword ptr [rax+rdi*8]
0x00007ffd1471671a	48 85 c9 	test rcx, rcx
0x00007ffd1471671d	74 0c 	jz 0x7ffd1471672b
0x00007ffd1471671f	48 8b 81 b0 00 00 00 	mov rax, qword ptr [rcx+0xb0]
0x00007ffd14716726	48 85 c0 	test rax, rax
0x00007ffd14716729	75 3f 	jnz 0x7ffd1471676a
0x00007ffd1471676a	f7 40 20 00 00 08 00 	(Ýj     rd ptr [rax+0x20], 0x80000
0x00007ffd14716771	75 b8 	jnz 0x7ffd1471672b
0x00007ffd14716773	48 39 48 38 	cmp qword ptr [rax+0x38], rcx
0x00007ffd14716777	74 b2 	jz 0x7ffd1471672b
0x00007ffd1471672b	ff c7 	inc edi
0x00007ffd1471672d	3b 7b 60 	cmp edi, dword ptr [rbx+0x60]
0x00007ffd14716730	72 e0 	jb 0x7ffd14716712
0x00007ffd14716712	48 8b 43 58 	mov rax, qword ptr [rbx+0x58]
0x00007ffd14716716	48 8b 0c f8 	mov rcx, qword ptr [rax+rdi*8]
0x00007ffd1471671a	48 85 c9 	test rcx, rcx
0x00007ffd1471671d	74 0c 	jz 0x7ffd1471672b
0x00007ffd1471671f	48 8b 81 b0 00 00 00 	mov rax, qword ptr [rcx+0xb0]
0x00007ffd14716726	48 85 c0 	test rax, rax
0x00007ffd14716729	75 3f 	jnz 0x7ffd1471676a
0x00007ffd1471676a	f7 40 20 00 00 08 00 	(Ýj     rd ptr [rax+0x20], 0x80000
0x00007ffd14716771	75 b8 	jnz 0x7ffd1471672b
0x00007ffd14716773	48 39 48 38 	cmp qword ptr [rax+0x38], rcx
0x00007ffd14716777	74 b2 	jz 0x7ffd1471672b
0x00007ffd1471672b	ff c7 	inc edi
0x00007ffd1471672d	3b 7b 60 	cmp edi, dword ptr [rbx+0x60]
0x00007ffd14716730	72 e0 	jb 0x7ffd14716712
0x00007ffd14716712	48 8b 43 58 	mov rax, qword ptr [rbx+0x58]
0x00007ffd14716716	48 8b 0c f8 	mov rcx, qword ptr [rax+rdi*8]
0x00007ffd1471671a	48 85 c9 	test rcx, rcx
0x00007ffd1471671d	74 0c 	jz 0x7ffd1471672b
0x00007ffd1471671f	48 8b 81 b0 00 00 00 	mov rax, qword ptr [rcx+0xb0]
0x00007ffd14716726	48 85 c0 	test rax, rax
0x00007ffd14716729	75 3f 	jnz 0x7ffd1471676a
0x00007ffd1471676a	f7 40 20 00 00 08 00 	(Ýj     rd ptr [rax+0x20], 0x80000
0x00007ffd14716771	75 b8 	jnz 0x7ffd1471672b
0x00007ffd14716773	48 39 48 38 	cmp qword ptr [rax+0x38], rcx
0x00007ffd14716777	74 b2 	jz 0x7ffd1471672b
0x00007ffd1471672b	ff c7 	inc edi
0x00007ffd1471672d	3b 7b 60 	cmp edi, dword ptr [rbx+0x60]
0x00007ffd14716730	72 e0 	jb 0x7ffd14716712
0x00007ffd14716712	48 8b 43 58 	mov rax, qword ptr [rbx+0x58]
0x00007ffd14716716	48 8b 0c f8 	mov rcx, qword ptr [rax+rdi*8]
0x00007ffd1471671a	48 85 c9 	test rcx, rcx
0x00007ffd1471671d	74 0c 	jz 0x7ffd1471672b
0x00007ffd1471671f	48 8b 81 b0 00 00 00 	mov rax, qword ptr [rcx+0xb0]
0x00007ffd14716726	48 85 c0 	test rax, rax
0x00007ffd14716729	75 3f 	jnz 0x7ffd1471676a
0x00007ffd1471676a	f7 40 20 00 00 08 00 	(Ýj     rd ptr [rax+0x20], 0x80000
0x00007ffd14716771	75 b8 	jnz 0x7ffd1471672b
0x00007ffd14716773	48 39 48 38 	cmp qword ptr [rax+0x38], rcx
0x00007ffd14716777	74 b2 	jz 0x7ffd1471672b
0x00007ffd1471672b	ff c7 	inc edi
0x00007ffd1471672d	3b 7b 60 	cmp edi, dword ptr [rbx+0x60]
0x00007ffd14716730	72 e0 	jb 0x7ffd14716712
0x00007ffd14716712	48 8b 43 58 	mov rax, qword ptr [rbx+0x58]
0x00007ffd14716716	48 8b 0c f8 	mov rcx, qword ptr [rax+rdi*8]
0x00007ffd1471671a	48 85 c9 	test rcx, rcx
0x00007ffd1471671d	74 0c 	jz 0x7ffd1471672b
0x00007ffd1471671f	48 8b 81 b0 00 00 00 	mov rax, qword ptr [rcx+0xb0]
0x00007ffd14716726	48 85 c0 	test rax, rax
0x00007ffd14716729	75 3f 	jnz 0x7ffd1471676a
0x00007ffd1471676a	f7 40 20 00 00 08 00 	(Ýj     rd ptr [rax+0x20], 0x80000
0x00007ffd14716771	75 b8 	jnz 0x7ffd1471672b
0x00007ffd14716773	48 39 48 38 	cmp qword ptr [rax+0x38], rcx
0x00007ffd14716777	74 b2 	jz 0x7ffd1471672b
0x00007ffd1471672b	ff c7 	inc edi
0x00007ffd1471672d	3b 7b 60 	cmp edi, dword ptr [rbx+0x60]
0x00007ffd14716730	72 e0 	jb 0x7ffd14716712
0x00007ffd14716712	48 8b 43 58 	mov rax, qword ptr [rbx+0x58]
0x00007ffd14716716	48 8b 0c f8 	mov rcx, qword ptr [rax+rdi*8]
0x00007ffd1471671a	48 85 c9 	test rcx, rcx
0x00007ffd1471671d	74 0c 	jz 0x7ffd1471672b
0x00007ffd1471671f	48 8b 81 b0 00 00 00 	mov rax, qword ptr [rcx+0xb0]
0x00007ffd14716726	48 85 c0 	test rax, rax
0x00007ffd14716729	75 3f 	jnz 0x7ffd1471676a
0x00007ffd1471676a	f7 40 20 00 00 08 00 	(Ýj     rd ptr [rax+0x20], 0x80000
0x00007ffd14716771	75 b8 	jnz 0x7ffd1471672b
0x00007ffd14716773	48 39 48 38 	cmp qword ptr [rax+0x38], rcx
0x00007ffd14716777	74 b2 	jz 0x7ffd1471672b
0x00007ffd1471672b	ff c7 	inc edi
0x00007ffd1471672d	3b 7b 60 	cmp edi, dword ptr [rbx+0x60]
0x00007ffd14716730	72 e0 	jb 0x7ffd14716712
0x00007ffd14716712	48 8b 43 58 	mov rax, qword ptr [rbx+0x58]
0x00007ffd14716716	48 8b 0c f8 	mov rcx, qword ptr [rax+rdi*8]
0x00007ffd1471671a	48 85 c9 	test rcx, rcx
0x00007ffd1471671d	74 0c 	jz 0x7ffd1471672b
0x00007ffd1471671f	48 8b 81 b0 00 00 00 	mov rax, qword ptr [rcx+0xb0]
0x00007ffd14716726	48 85 c0 	test rax, rax
0x00007ffd14716729	75 3f 	jnz 0x7ffd1471676a
0x00007ffd1471676a	f7 40 20 00 00 08 00 	(Ýj     rd ptr [rax+0x20], 0x80000
0x00007ffd14716771	75 b8 	jnz 0x7ffd1471672b
0x00007ffd14716773	48 39 48 38 	cmp qword ptr [rax+0x38], rcx
0x00007ffd14716777	74 b2 	jz 0x7ffd1471672b
0x00007ffd1471672b	ff c7 	inc edi
0x00007ffd1471672d	3b 7b 60 	cmp edi, dword ptr [rbx+0x60]
0x00007ffd14716730	72 e0 	jb 0x7ffd14716712
0x00007ffd14716712	48 8b 43 58 	mov rax, qword ptr [rbx+0x58]
0x00007ffd14716716	48 8b 0c f8 	mov rcx, qword ptr [rax+rdi*8]
0x00007ffd1471671a	48 85 c9 	test rcx, rcx
0x00007ffd1471671d	74 0c 	jz 0x7ffd1471672b
0x00007ffd1471671f	48 8b 81 b0 00 00 00 	mov rax, qword ptr [rcx+0xb0]
0x00007ffd14716726	48 85 c0 	test rax, rax
0x00007ffd14716729	75 3f 	jnz 0x7ffd1471676a
0x00007ffd1471676a	f7 40 20 00 00 08 00 	(Ýj     rd ptr [rax+0x20], 0x80000
0x00007ffd14716771	75 b8 	jnz 0x7ffd1471672b
0x00007ffd14716773	48 39 48 38 	cmp qword ptr [rax+0x38], rcx
0x00007ffd14716777	74 b2 	jz 0x7ffd1471672b
0x00007ffd1471672b	ff c7 	inc edi
0x00007ffd1471672d	3b 7b 60 	cmp edi, dword ptr [rbx+0x60]
0x00007ffd14716730	72 e0 	jb 0x7ffd14716712
0x00007ffd14716712	48 8b 43 58 	mov rax, qword ptr [rbx+0x58]
0x00007ffd14716716	48 8b 0c f8 	mov rcx, qword ptr [rax+rdi*8]
0x00007ffd1471671a	48 85 c9 	test rcx, rcx
0x00007ffd1471671d	74 0c 	jz 0x7ffd1471672b
0x00007ffd1471671f	48 8b 81 b0 00 00 00 	mov rax, qword ptr [rcx+0xb0]
0x00007ffd14716726	48 85 c0 	test rax, rax
0x00007ffd14716729	75 3f 	jnz 0x7ffd1471676a
0x00007ffd1471676a	f7 40 20 00 00 08 00 	(Ýj     rd ptr [rax+0x20], 0x80000
0x00007ffd14716771	75 b8 	jnz 0x7ffd1471672b
0x00007ffd14716773	48 39 48 38 	cmp qword ptr [rax+0x38], rcx
0x00007ffd14716777	74 b2 	jz 0x7ffd1471672b
0x00007ffd1471672b	ff c7 	inc edi
0x00007ffd1471672d	3b 7b 60 	cmp edi, dword ptr [rbx+0x60]
0x00007ffd14716730	72 e0 	jb 0x7ffd14716712
0x00007ffd14716712	48 8b 43 58 	mov rax, qword ptr [rbx+0x58]
0x00007ffd14716716	48 8b 0c f8 	mov rcx, qword ptr [rax+rdi*8]
0x00007ffd1471671a	48 85 c9 	test rcx, rcx
0x00007ffd1471671d	74 0c 	jz 0x7ffd1471672b
0x00007ffd1471671f	48 8b 81 b0 00 00 00 	mov rax, qword ptr [rcx+0xb0]
0x00007ffd14716726	48 85 c0 	test rax, rax
0x00007ffd14716729	75 3f 	jnz 0x7ffd1471676a
0x00007ffd1471676a	f7 40 20 00 00 08 00 	(Ýj     rd ptr [rax+0x20], 0x80000
0x00007ffd14716771	75 b8 	jnz 0x7ffd1471672b
0x00007ffd14716773	48 39 48 38 	cmp qword ptr [rax+0x38], rcx
0x00007ffd14716777	74 b2 	jz 0x7ffd1471672b
0x00007ffd1471672b	ff c7 	inc edi
0x00007ffd1471672d	3b 7b 60 	cmp edi, dword ptr [rbx+0x60]
0x00007ffd14716730	72 e0 	jb 0x7ffd14716712
0x00007ffd14716712	48 8b 43 58 	mov rax, qword ptr [rbx+0x58]
0x00007ffd14716716	48 8b 0c f8 	mov rcx, qword ptr [rax+rdi*8]
0x00007ffd1471671a	48 85 c9 	test rcx, rcx
0x00007ffd1471671d	74 0c 	jz 0x7ffd1471672b
0x00007ffd1471671f	48 8b 81 b0 00 00 00 	mov rax, qword ptr [rcx+0xb0]
0x00007ffd14716726	48 85 c0 	test rax, rax
0x00007ffd14716729	75 3f 	jnz 0x7ffd1471676a
0x00007ffd1471676a	f7 40 20 00 00 08 00 	(Ýj     rd ptr [rax+0x20], 0x80000
0x00007ffd14716771	75 b8 	jnz 0x7ffd1471672b
0x00007ffd14716773	48 39 48 38 	cmp qword ptr [rax+0x38], rcx
0x00007ffd14716777	74 b2 	jz 0x7ffd1471672b
0x00007ffd1471672b	ff c7 	inc edi
0x00007ffd1471672d	3b 7b 60 	cmp edi, dword ptr [rbx+0x60]
0x00007ffd14716730	72 e0 	jb 0x7ffd14716712
0x00007ffd14716712	48 8b 43 58 	mov rax, qword ptr [rbx+0x58]
0x00007ffd14716716	48 8b 0c f8 	mov rcx, qword ptr [rax+rdi*8]
0x00007ffd1471671a	48 85 c9 	test rcx, rcx
0x00007ffd1471671d	74 0c 	jz 0x7ffd1471672b
0x00007ffd1471671f	48 8b 81 b0 00 00 00 	mov rax, qword ptr [rcx+0xb0]
0x00007ffd14716726	48 85 c0 	test rax, rax
0x00007ffd14716729	75 3f 	jnz 0x7ffd1471676a
0x00007ffd1471676a	f7 40 20 00 00 08 00 	(Ýj     rd ptr [rax+0x20], 0x80000
0x00007ffd14716771	75 b8 	jnz 0x7ffd1471672b
0x00007ffd14716773	48 39 48 38 	cmp qword ptr [rax+0x38], rcx
0x00007ffd14716777	74 b2 	jz 0x7ffd1471672b
0x00007ffd1471672b	ff c7 	inc edi
0x00007ffd1471672d	3b 7b 60 	cmp edi, dword ptr [rbx+0x60]
0x00007ffd14716730	72 e0 	jb 0x7ffd14716712
0x00007ffd14716712	48 8b 43 58 	mov rax, qword ptr [rbx+0x58]
0x00007ffd14716716	48 8b 0c f8 	mov rcx, qword ptr [rax+rdi*8]
0x00007ffd1471671a	48 85 c9 	test rcx, rcx
0x00007ffd1471671d	74 0c 	jz 0x7ffd1471672b
0x00007ffd1471671f	48 8b 81 b0 00 00 00 	mov rax, qword ptr [rcx+0xb0]
0x00007ffd14716726	48 85 c0 	test rax, rax
0x00007ffd14716729	75 3f 	jnz 0x7ffd1471676a
0x00007ffd1471676a	f7 40 20 00 00 08 00 	(Ýj     rd ptr [rax+0x20], 0x80000
0x00007ffd14716771	75 b8 	jnz 0x7ffd1471672b
0x00007ffd14716773	48 39 48 38 	cmp qword ptr [rax+0x38], rcx
0x00007ffd14716777	74 b2 	jz 0x7ffd1471672b
0x00007ffd1471672b	ff c7 	inc edi
0x00007ffd1471672d	3b 7b 60 	cmp edi, dword ptr [rbx+0x60]
0x00007ffd14716730	72 e0 	jb 0x7ffd14716712
0x00007ffd14716712	48 8b 43 58 	mov rax, qword ptr [rbx+0x58]
0x00007ffd14716716	48 8b 0c f8 	mov rcx, qword ptr [rax+rdi*8]
0x00007ffd1471671a	48 85 c9 	test rcx, rcx
0x00007ffd1471671d	74 0c 	jz 0x7ffd1471672b
0x00007ffd1471671f	48 8b 81 b0 00 00 00 	mov rax, qword ptr [rcx+0xb0]
0x00007ffd14716726	48 85 c0 	test rax, rax
0x00007ffd14716729	75 3f 	jnz 0x7ffd1471676a
0x00007ffd1471676a	f7 40 20 00 00 08 00 	(Ýj     rd ptr [rax+0x20], 0x80000
0x00007ffd14716771	75 b8 	jnz 0x7ffd1471672b
0x00007ffd14716773	48 39 48 38 	cmp qword ptr [rax+0x38], rcx
0x00007ffd14716777	74 b2 	jz 0x7ffd1471672b
0x00007ffd1471672b	ff c7 	inc edi
0x00007ffd1471672d	3b 7b 60 	cmp edi, dword ptr [rbx+0x60]
0x00007ffd14716730	72 e0 	jb 0x7ffd14716712
0x00007ffd14716712	48 8b 43 58 	mov rax, qword ptr [rbx+0x58]
0x00007ffd14716716	48 8b 0c f8 	mov rcx, qword ptr [rax+rdi*8]
0x00007ffd1471671a	48 85 c9 	test rcx, rcx
0x00007ffd1471671d	74 0c 	jz 0x7ffd1471672b
0x00007ffd1471671f	48 8b 81 b0 00 00 00 	mov rax, qword ptr [rcx+0xb0]
0x00007ffd14716726	48 85 c0 	test rax, rax
0x00007ffd14716729	75 3f 	jnz 0x7ffd1471676a
0x00007ffd1471676a	f7 40 20 00 00 08 00 	(Ýj     rd ptr [rax+0x20], 0x80000
0x00007ffd14716771	75 b8 	jnz 0x7ffd1471672b
0x00007ffd14716773	48 39 48 38 	cmp qword ptr [rax+0x38], rcx
0x00007ffd14716777	74 b2 	jz 0x7ffd1471672b
0x00007ffd1471672b	ff c7 	inc edi
0x00007ffd1471672d	3b 7b 60 	cmp edi, dword ptr [rbx+0x60]
0x00007ffd14716730	72 e0 	jb 0x7ffd14716712
0x00007ffd14716712	48 8b 43 58 	mov rax, qword ptr [rbx+0x58]
0x00007ffd14716716	48 8b 0c f8 	mov rcx, qword ptr [rax+rdi*8]
0x00007ffd1471671a	48 85 c9 	test rcx, rcx
0x00007ffd1471671d	74 0c 	jz 0x7ffd1471672b
0x00007ffd1471671f	48 8b 81 b0 00 00 00 	mov rax, qword ptr [rcx+0xb0]
0x00007ffd14716726	48 85 c0 	test rax, rax
0x00007ffd14716729	75 3f 	jnz 0x7ffd1471676a
0x00007ffd1471676a	f7 40 20 00 00 08 00 	(Ýj     rd ptr [rax+0x20], 0x80000
0x00007ffd14716771	75 b8 	jnz 0x7ffd1471672b
0x00007ffd14716773	48 39 48 38 	cmp qword ptr [rax+0x38], rcx
0x00007ffd14716777	74 b2 	jz 0x7ffd1471672b
0x00007ffd1471672b	ff c7 	inc edi
0x00007ffd1471672d	3b 7b 60 	cmp edi, dword ptr [rbx+0x60]
0x00007ffd14716730	72 e0 	jb 0x7ffd14716712
0x00007ffd14716712	48 8b 43 58 	mov rax, qword ptr [rbx+0x58]
0x00007ffd14716716	48 8b 0c f8 	mov rcx, qword ptr [rax+rdi*8]
0x00007ffd1471671a	48 85 c9 	test rcx, rcx
0x00007ffd1471671d	74 0c 	jz 0x7ffd1471672b
0x00007ffd1471671f	48 8b 81 b0 00 00 00 	mov rax, qword ptr [rcx+0xb0]
0x00007ffd14716726	48 85 c0 	test rax, rax
0x00007ffd14716729	75 3f 	jnz 0x7ffd1471676a
0x00007ffd1471676a	f7 40 20 00 00 08 00 	(Ýj     rd ptr [rax+0x20], 0x80000
0x00007ffd14716771	75 b8 	jnz 0x7ffd1471672b
0x00007ffd14716773	48 39 48 38 	cmp qword ptr [rax+0x38], rcx
0x00007ffd14716777	74 b2 	jz 0x7ffd1471672b
0x00007ffd1471672b	ff c7 	inc edi
0x00007ffd1471672d	3b 7b 60 	cmp edi, dword ptr [rbx+0x60]
0x00007ffd14716730	72 e0 	jb 0x7ffd14716712
0x00007ffd14716712	48 8b 43 58 	mov rax, qword ptr [rbx+0x58]
0x00007ffd14716716	48 8b 0c f8 	mov rcx, qword ptr [rax+rdi*8]
0x00007ffd1471671a	48 85 c9 	test rcx, rcx
0x00007ffd1471671d	74 0c 	jz 0x7ffd1471672b
0x00007ffd1471671f	48 8b 81 b0 00 00 00 	mov rax, qword ptr [rcx+0xb0]
0x00007ffd14716726	48 85 c0 	test rax, rax
0x00007ffd14716729	75 3f 	jnz 0x7ffd1471676a
0x00007ffd1471676a	f7 40 20 00 00 08 00 	(Ýj     rd ptr [rax+0x20], 0x80000
0x00007ffd14716771	75 b8 	jnz 0x7ffd1471672b
0x00007ffd14716773	48 39 48 38 	cmp qword ptr [rax+0x38], rcx
0x00007ffd14716777	74 b2 	jz 0x7ffd1471672b
0x00007ffd1471672b	ff c7 	inc edi
0x00007ffd1471672d	3b 7b 60 	cmp edi, dword ptr [rbx+0x60]
0x00007ffd14716730	72 e0 	jb 0x7ffd14716712
0x00007ffd14716712	48 8b 43 58 	mov rax, qword ptr [rbx+0x58]
0x00007ffd14716716	48 8b 0c f8 	mov rcx, qword ptr [rax+rdi*8]
0x00007ffd1471671a	48 85 c9 	test rcx, rcx
0x00007ffd1471671d	74 0c 	jz 0x7ffd1471672b
0x00007ffd1471671f	48 8b 81 b0 00 00 00 	mov rax, qword ptr [rcx+0xb0]
0x00007ffd14716726	48 85 c0 	test rax, rax
0x00007ffd14716729	75 3f 	jnz 0x7ffd1471676a
0x00007ffd1471676a	f7 40 20 00 00 08 00 	(Ýj     rd ptr [rax+0x20], 0x80000
0x00007ffd14716771	75 b8 	jnz 0x7ffd1471672b
0x00007ffd14716773	48 39 48 38 	cmp qword ptr [rax+0x38], rcx
0x00007ffd14716777	74 b2 	jz 0x7ffd1471672b
0x00007ffd1471672b	ff c7 	inc edi
0x00007ffd1471672d	3b 7b 60 	cmp edi, dword ptr [rbx+0x60]
0x00007ffd14716730	72 e0 	jb 0x7ffd14716712
0x00007ffd14716712	48 8b 43 58 	mov rax, qword ptr [rbx+0x58]
0x00007ffd14716716	48 8b 0c f8 	mov rcx, qword ptr [rax+rdi*8]
0x00007ffd1471671a	48 85 c9 	test rcx, rcx
0x00007ffd1471671d	74 0c 	jz 0x7ffd1471672b
0x00007ffd1471671f	48 8b 81 b0 00 00 00 	mov rax, qword ptr [rcx+0xb0]
0x00007ffd14716726	48 85 c0 	test rax, rax
0x00007ffd14716729	75 3f 	jnz 0x7ffd1471676a
0x00007ffd1471676a	f7 40 20 00 00 08 00 	(Ýj     rd ptr [rax+0x20], 0x80000
0x00007ffd14716771	75 b8 	jnz 0x7ffd1471672b
0x00007ffd14716773	48 39 48 38 	cmp qword ptr [rax+0x38], rcx
0x00007ffd14716777	74 b2 	jz 0x7ffd1471672b
0x00007ffd1471672b	ff c7 	inc edi
0x00007ffd1471672d	3b 7b 60 	cmp edi, dword ptr [rbx+0x60]
0x00007ffd14716730	72 e0 	jb 0x7ffd14716712
0x00007ffd14716712	48 8b 43 58 	mov rax, qword ptr [rbx+0x58]
0x00007ffd14716716	48 8b 0c f8 	mov rcx, qword ptr [rax+rdi*8]
0x00007ffd1471671a	48 85 c9 	test rcx, rcx
0x00007ffd1471671d	74 0c 	jz 0x7ffd1471672b
0x00007ffd1471671f	48 8b 81 b0 00 00 00 	mov rax, qword ptr [rcx+0xb0]
0x00007ffd14716726	48 85 c0 	test rax, rax
0x00007ffd14716729	75 3f 	jnz 0x7ffd1471676a
0x00007ffd1471676a	f7 40 20 00 00 08 00 	(Ýj     rd ptr [rax+0x20], 0x80000
0x00007ffd14716771	75 b8 	jnz 0x7ffd1471672b
0x00007ffd14716773	48 39 48 38 	cmp qword ptr [rax+0x38], rcx
0x00007ffd14716777	74 b2 	jz 0x7ffd1471672b
0x00007ffd1471672b	ff c7 	inc edi
0x00007ffd1471672d	3b 7b 60 	cmp edi, dword ptr [rbx+0x60]
0x00007ffd14716730	72 e0 	jb 0x7ffd14716712
0x00007ffd14716712	48 8b 43 58 	mov rax, qword ptr [rbx+0x58]
0x00007ffd14716716	48 8b 0c f8 	mov rcx, qword ptr [rax+rdi*8]
0x00007ffd1471671a	48 85 c9 	test rcx, rcx
0x00007ffd1471671d	74 0c 	jz 0x7ffd1471672b
0x00007ffd1471671f	48 8b 81 b0 00 00 00 	mov rax, qword ptr [rcx+0xb0]
0x00007ffd14716726	48 85 c0 	test rax, rax
0x00007ffd14716729	75 3f 	jnz 0x7ffd1471676a
0x00007ffd1471676a	f7 40 20 00 00 08 00 	(Ýj     rd ptr [rax+0x20], 0x80000
0x00007ffd14716771	75 b8 	jnz 0x7ffd1471672b
0x00007ffd14716773	48 39 48 38 	cmp qword ptr [rax+0x38], rcx
0x00007ffd14716777	74 b2 	jz 0x7ffd1471672b
0x00007ffd1471672b	ff c7 	inc edi
0x00007ffd1471672d	3b 7b 60 	cmp edi, dword ptr [rbx+0x60]
0x00007ffd14716730	72 e0 	jb 0x7ffd14716712
0x00007ffd14716712	48 8b 43 58 	mov rax, qword ptr [rbx+0x58]
0x00007ffd14716716	48 8b 0c f8 	mov rcx, qword ptr [rax+rdi*8]
0x00007ffd1471671a	48 85 c9 	test rcx, rcx
0x00007ffd1471671d	74 0c 	jz 0x7ffd1471672b
0x00007ffd1471671f	48 8b 81 b0 00 00 00 	mov rax, qword ptr [rcx+0xb0]
0x00007ffd14716726	48 85 c0 	test rax, rax
0x00007ffd14716729	75 3f 	jnz 0x7ffd1471676a
0x00007ffd1471676a	f7 40 20 00 00 08 00 	(Ýj     rd ptr [rax+0x20], 0x80000
0x00007ffd14716771	75 b8 	jnz 0x7ffd1471672b
0x00007ffd14716773	48 39 48 38 	cmp qword ptr [rax+0x38], rcx
0x00007ffd14716777	74 b2 	jz 0x7ffd1471672b
0x00007ffd1471672b	ff c7 	inc edi
0x00007ffd1471672d	3b 7b 60 	cmp edi, dword ptr [rbx+0x60]
0x00007ffd14716730	72 e0 	jb 0x7ffd14716712
0x00007ffd14716712	48 8b 43 58 	mov rax, qword ptr [rbx+0x58]
0x00007ffd14716716	48 8b 0c f8 	mov rcx, qword ptr [rax+rdi*8]
0x00007ffd1471671a	48 85 c9 	test rcx, rcx
0x00007ffd1471671d	74 0c 	jz 0x7ffd1471672b
0x00007ffd1471671f	48 8b 81 b0 00 00 00 	mov rax, qword ptr [rcx+0xb0]
0x00007ffd14716726	48 85 c0 	test rax, rax
0x00007ffd14716729	75 3f 	jnz 0x7ffd1471676a
0x00007ffd1471676a	f7 40 20 00 00 08 00 	(Ýj     rd ptr [rax+0x20], 0x80000
0x00007ffd14716771	75 b8 	jnz 0x7ffd1471672b
0x00007ffd14716773	48 39 48 38 	cmp qword ptr [rax+0x38], rcx
0x00007ffd14716777	74 b2 	jz 0x7ffd1471672b
0x00007ffd1471672b	ff c7 	inc edi
0x00007ffd1471672d	3b 7b 60 	cmp edi, dword ptr [rbx+0x60]
0x00007ffd14716730	72 e0 	jb 0x7ffd14716712
0x00007ffd14716712	48 8b 43 58 	mov rax, qword ptr [rbx+0x58]
0x00007ffd14716716	48 8b 0c f8 	mov rcx, qword ptr [rax+rdi*8]
0x00007ffd1471671a	48 85 c9 	test rcx, rcx
0x00007ffd1471671d	74 0c 	jz 0x7ffd1471672b
0x00007ffd1471671f	48 8b 81 b0 00 00 00 	mov rax, qword ptr [rcx+0xb0]
0x00007ffd14716726	48 85 c0 	test rax, rax
0x00007ffd14716729	75 3f 	jnz 0x7ffd1471676a
0x00007ffd1471676a	f7 40 20 00 00 08 00 	(Ýj     rd ptr [rax+0x20], 0x80000
0x00007ffd14716771	75 b8 	jnz 0x7ffd1471672b
0x00007ffd14716773	48 39 48 38 	cmp qword ptr [rax+0x38], rcx
0x00007ffd14716777	74 b2 	jz 0x7ffd1471672b
0x00007ffd1471672b	ff c7 	inc edi
0x00007ffd1471672d	3b 7b 60 	cmp edi, dword ptr [rbx+0x60]
0x00007ffd14716730	72 e0 	jb 0x7ffd14716712
0x00007ffd14716712	48 8b 43 58 	mov rax, qword ptr [rbx+0x58]
0x00007ffd14716716	48 8b 0c f8 	mov rcx, qword ptr [rax+rdi*8]
0x00007ffd1471671a	48 85 c9 	test rcx, rcx
0x00007ffd1471671d	74 0c 	jz 0x7ffd1471672b
0x00007ffd1471671f	48 8b 81 b0 00 00 00 	mov rax, qword ptr [rcx+0xb0]
0x00007ffd14716726	48 85 c0 	test rax, rax
0x00007ffd14716729	75 3f 	jnz 0x7ffd1471676a
0x00007ffd1471676a	f7 40 20 00 00 08 00 	(Ýj     rd ptr [rax+0x20], 0x80000
0x00007ffd14716771	75 b8 	jnz 0x7ffd1471672b
0x00007ffd14716773	48 39 48 38 	cmp qword ptr [rax+0x38], rcx
0x00007ffd14716777	74 b2 	jz 0x7ffd1471672b
0x00007ffd1471672b	ff c7 	inc edi
0x00007ffd1471672d	3b 7b 60 	cmp edi, dword ptr [rbx+0x60]
0x00007ffd14716730	72 e0 	jb 0x7ffd14716712
0x00007ffd14716712	48 8b 43 58 	mov rax, qword ptr [rbx+0x58]
0x00007ffd14716716	48 8b 0c f8 	mov rcx, qword ptr [rax+rdi*8]
0x00007ffd1471671a	48 85 c9 	test rcx, rcx
0x00007ffd1471671d	74 0c 	jz 0x7ffd1471672b
0x00007ffd1471671f	48 8b 81 b0 00 00 00 	mov rax, qword ptr [rcx+0xb0]
0x00007ffd14716726	48 85 c0 	test rax, rax
0x00007ffd14716729	75 3f 	jnz 0x7ffd1471676a
0x00007ffd1471676a	f7 40 20 00 00 08 00 	(Ýj     rd ptr [rax+0x20], 0x80000
0x00007ffd14716771	75 b8 	jnz 0x7ffd1471672b
0x00007ffd14716773	48 39 48 38 	cmp qword ptr [rax+0x38], rcx
0x00007ffd14716777	74 b2 	jz 0x7ffd1471672b
0x00007ffd1471672b	ff c7 	inc edi
0x00007ffd1471672d	3b 7b 60 	cmp edi, dword ptr [rbx+0x60]
0x00007ffd14716730	72 e0 	jb 0x7ffd14716712
0x00007ffd14716712	48 8b 43 58 	mov rax, qword ptr [rbx+0x58]
0x00007ffd14716716	48 8b 0c f8 	mov rcx, qword ptr [rax+rdi*8]
0x00007ffd1471671a	48 85 c9 	test rcx, rcx
0x00007ffd1471671d	74 0c 	jz 0x7ffd1471672b
0x00007ffd1471671f	48 8b 81 b0 00 00 00 	mov rax, qword ptr [rcx+0xb0]
0x00007ffd14716726	48 85 c0 	test rax, rax
0x00007ffd14716729	75 3f 	jnz 0x7ffd1471676a
0x00007ffd1471676a	f7 40 20 00 00 08 00 	(Ýj     rd ptr [rax+0x20], 0x80000
0x00007ffd14716771	75 b8 	jnz 0x7ffd1471672b
0x00007ffd14716773	48 39 48 38 	cmp qword ptr [rax+0x38], rcx
0x00007ffd14716777	74 b2 	jz 0x7ffd1471672b
0x00007ffd1471672b	ff c7 	inc edi
0x00007ffd1471672d	3b 7b 60 	cmp edi, dword ptr [rbx+0x60]
0x00007ffd14716730	72 e0 	jb 0x7ffd14716712
0x00007ffd14716712	48 8b 43 58 	mov rax, qword ptr [rbx+0x58]
0x00007ffd14716716	48 8b 0c f8 	mov rcx, qword ptr [rax+rdi*8]
0x00007ffd1471671a	48 85 c9 	test rcx, rcx
0x00007ffd1471671d	74 0c 	jz 0x7ffd1471672b
0x00007ffd1471671f	48 8b 81 b0 00 00 00 	mov rax, qword ptr [rcx+0xb0]
0x00007ffd14716726	48 85 c0 	test rax, rax
0x00007ffd14716729	75 3f 	jnz 0x7ffd1471676a
0x00007ffd1471676a	f7 40 20 00 00 08 00 	(Ýj     rd ptr [rax+0x20], 0x80000
0x00007ffd14716771	75 b8 	jnz 0x7ffd1471672b
0x00007ffd14716773	48 39 48 38 	cmp qword ptr [rax+0x38], rcx
0x00007ffd14716777	74 b2 	jz 0x7ffd1471672b
0x00007ffd1471672b	ff c7 	inc edi
0x00007ffd1471672d	3b 7b 60 	cmp edi, dword ptr [rbx+0x60]
0x00007ffd14716730	72 e0 	jb 0x7ffd14716712
0x00007ffd14716712	48 8b 43 58 	mov rax, qword ptr [rbx+0x58]
0x00007ffd14716716	48 8b 0c f8 	mov rcx, qword ptr [rax+rdi*8]
0x00007ffd1471671a	48 85 c9 	test rcx, rcx
0x00007ffd1471671d	74 0c 	jz 0x7ffd1471672b
0x00007ffd1471671f	48 8b 81 b0 00 00 00 	mov rax, qword ptr [rcx+0xb0]
0x00007ffd14716726	48 85 c0 	test rax, rax
0x00007ffd14716729	75 3f 	jnz 0x7ffd1471676a
0x00007ffd1471676a	f7 40 20 00 00 08 00 	(Ýj     rd ptr [rax+0x20], 0x80000
0x00007ffd14716771	75 b8 	jnz 0x7ffd1471672b
0x00007ffd14716773	48 39 48 38 	cmp qword ptr [rax+0x38], rcx
0x00007ffd14716777	74 b2 	jz 0x7ffd1471672b
0x00007ffd1471672b	ff c7 	inc edi
0x00007ffd1471672d	3b 7b 60 	cmp edi, dword ptr [rbx+0x60]
0x00007ffd14716730	72 e0 	jb 0x7ffd14716712
0x00007ffd14716712	48 8b 43 58 	mov rax, qword ptr [rbx+0x58]
0x00007ffd14716716	48 8b 0c f8 	mov rcx, qword ptr [rax+rdi*8]
0x00007ffd1471671a	48 85 c9 	test rcx, rcx
0x00007ffd1471671d	74 0c 	jz 0x7ffd1471672b
0x00007ffd1471671f	48 8b 81 b0 00 00 00 	mov rax, qword ptr [rcx+0xb0]
0x00007ffd14716726	48 85 c0 	test rax, rax
0x00007ffd14716729	75 3f 	jnz 0x7ffd1471676a
0x00007ffd1471676a	f7 40 20 00 00 08 00 	(Ýj     rd ptr [rax+0x20], 0x80000
0x00007ffd14716771	75 b8 	jnz 0x7ffd1471672b
0x00007ffd14716773	48 39 48 38 	cmp qword ptr [rax+0x38], rcx
0x00007ffd14716777	74 b2 	jz 0x7ffd1471672b
0x00007ffd1471672b	ff c7 	inc edi
0x00007ffd1471672d	3b 7b 60 	cmp edi, dword ptr [rbx+0x60]
0x00007ffd14716730	72 e0 	jb 0x7ffd14716712
0x00007ffd14716712	48 8b 43 58 	mov rax, qword ptr [rbx+0x58]
0x00007ffd14716716	48 8b 0c f8 	mov rcx, qword ptr [rax+rdi*8]
0x00007ffd1471671a	48 85 c9 	test rcx, rcx
0x00007ffd1471671d	74 0c 	jz 0x7ffd1471672b
0x00007ffd1471671f	48 8b 81 b0 00 00 00 	mov rax, qword ptr [rcx+0xb0]
0x00007ffd14716726	48 85 c0 	test rax, rax
0x00007ffd14716729	75 3f 	jnz 0x7ffd1471676a
0x00007ffd1471676a	f7 40 20 00 00 08 00 	(Ýj     rd ptr [rax+0x20], 0x80000
0x00007ffd14716771	75 b8 	jnz 0x7ffd1471672b
0x00007ffd14716773	48 39 48 38 	cmp qword ptr [rax+0x38], rcx
0x00007ffd14716777	74 b2 	jz 0x7ffd1471672b
0x00007ffd1471672b	ff c7 	inc edi
0x00007ffd1471672d	3b 7b 60 	cmp edi, dword ptr [rbx+0x60]
0x00007ffd14716730	72 e0 	jb 0x7ffd14716712
0x00007ffd14716712	48 8b 43 58 	mov rax, qword ptr [rbx+0x58]
0x00007ffd14716716	48 8b 0c f8 	mov rcx, qword ptr [rax+rdi*8]
0x00007ffd1471671a	48 85 c9 	test rcx, rcx
0x00007ffd1471671d	74 0c 	jz 0x7ffd1471672b
0x00007ffd1471671f	48 8b 81 b0 00 00 00 	mov rax, qword ptr [rcx+0xb0]
0x00007ffd14716726	48 85 c0 	test rax, rax
0x00007ffd14716729	75 3f 	jnz 0x7ffd1471676a
0x00007ffd1471676a	f7 40 20 00 00 08 00 	(Ýj     rd ptr [rax+0x20], 0x80000
0x00007ffd14716771	75 b8 	jnz 0x7ffd1471672b
0x00007ffd14716773	48 39 48 38 	cmp qword ptr [rax+0x38], rcx
0x00007ffd14716777	74 b2 	jz 0x7ffd1471672b
0x00007ffd1471672b	ff c7 	inc edi
0x00007ffd1471672d	3b 7b 60 	cmp edi, dword ptr [rbx+0x60]
0x00007ffd14716730	72 e0 	jb 0x7ffd14716712
0x00007ffd14716712	48 8b 43 58 	mov rax, qword ptr [rbx+0x58]
0x00007ffd14716716	48 8b 0c f8 	mov rcx, qword ptr [rax+rdi*8]
0x00007ffd1471671a	48 85 c9 	test rcx, rcx
0x00007ffd1471671d	74 0c 	jz 0x7ffd1471672b
0x00007ffd1471671f	48 8b 81 b0 00 00 00 	mov rax, qword ptr [rcx+0xb0]
0x00007ffd14716726	48 85 c0 	test rax, rax
0x00007ffd14716729	75 3f 	jnz 0x7ffd1471676a
0x00007ffd1471676a	f7 40 20 00 00 08 00 	(Ýj     rd ptr [rax+0x20], 0x80000
0x00007ffd14716771	75 b8 	jnz 0x7ffd1471672b
0x00007ffd14716773	48 39 48 38 	cmp qword ptr [rax+0x38], rcx
0x00007ffd14716777	74 b2 	jz 0x7ffd1471672b
0x00007ffd1471672b	ff c7 	inc edi
0x00007ffd1471672d	3b 7b 60 	cmp edi, dword ptr [rbx+0x60]
0x00007ffd14716730	72 e0 	jb 0x7ffd14716712
0x00007ffd14716712	48 8b 43 58 	mov rax, qword ptr [rbx+0x58]
0x00007ffd14716716	48 8b 0c f8 	mov rcx, qword ptr [rax+rdi*8]
0x00007ffd1471671a	48 85 c9 	test rcx, rcx
0x00007ffd1471671d	74 0c 	jz 0x7ffd1471672b
0x00007ffd1471671f	48 8b 81 b0 00 00 00 	mov rax, qword ptr [rcx+0xb0]
0x00007ffd14716726	48 85 c0 	test rax, rax
0x00007ffd14716729	75 3f 	jnz 0x7ffd1471676a
0x00007ffd1471676a	f7 40 20 00 00 08 00 	(Ýj     rd ptr [rax+0x20], 0x80000
0x00007ffd14716771	75 b8 	jnz 0x7ffd1471672b
0x00007ffd14716773	48 39 48 38 	cmp qword ptr [rax+0x38], rcx
0x00007ffd14716777	74 b2 	jz 0x7ffd1471672b
0x00007ffd1471672b	ff c7 	inc edi
0x00007ffd1471672d	3b 7b 60 	cmp edi, dword ptr [rbx+0x60]
0x00007ffd14716730	72 e0 	jb 0x7ffd14716712
0x00007ffd14716712	48 8b 43 58 	mov rax, qword ptr [rbx+0x58]
0x00007ffd14716716	48 8b 0c f8 	mov rcx, qword ptr [rax+rdi*8]
0x00007ffd1471671a	48 85 c9 	test rcx, rcx
0x00007ffd1471671d	74 0c 	jz 0x7ffd1471672b
0x00007ffd1471671f	48 8b 81 b0 00 00 00 	mov rax, qword ptr [rcx+0xb0]
0x00007ffd14716726	48 85 c0 	test rax, rax
0x00007ffd14716729	75 3f 	jnz 0x7ffd1471676a
0x00007ffd1471676a	f7 40 20 00 00 08 00 	(Ýj     rd ptr [rax+0x20], 0x80000
0x00007ffd14716771	75 b8 	jnz 0x7ffd1471672b
0x00007ffd14716773	48 39 48 38 	cmp qword ptr [rax+0x38], rcx
0x00007ffd14716777	74 b2 	jz 0x7ffd1471672b
0x00007ffd1471672b	ff c7 	inc edi
0x00007ffd1471672d	3b 7b 60 	cmp edi, dword ptr [rbx+0x60]
0x00007ffd14716730	72 e0 	jb 0x7ffd14716712
0x00007ffd14716712	48 8b 43 58 	mov rax, qword ptr [rbx+0x58]
0x00007ffd14716716	48 8b 0c f8 	mov rcx, qword ptr [rax+rdi*8]
0x00007ffd1471671a	48 85 c9 	test rcx, rcx
0x00007ffd1471671d	74 0c 	jz 0x7ffd1471672b
0x00007ffd1471671f	48 8b 81 b0 00 00 00 	mov rax, qword ptr [rcx+0xb0]
0x00007ffd14716726	48 85 c0 	test rax, rax
0x00007ffd14716729	75 3f 	jnz 0x7ffd1471676a
0x00007ffd1471676a	f7 40 20 00 00 08 00 	(Ýj     rd ptr [rax+0x20], 0x80000
0x00007ffd14716771	75 b8 	jnz 0x7ffd1471672b
0x00007ffd14716773	48 39 48 38 	cmp qword ptr [rax+0x38], rcx
0x00007ffd14716777	74 b2 	jz 0x7ffd1471672b
0x00007ffd1471672b	ff c7 	inc edi
0x00007ffd1471672d	3b 7b 60 	cmp edi, dword ptr [rbx+0x60]
0x00007ffd14716730	72 e0 	jb 0x7ffd14716712
0x00007ffd14716712	48 8b 43 58 	mov rax, qword ptr [rbx+0x58]
0x00007ffd14716716	48 8b 0c f8 	mov rcx, qword ptr [rax+rdi*8]
0x00007ffd1471671a	48 85 c9 	test rcx, rcx
0x00007ffd1471671d	74 0c 	jz 0x7ffd1471672b
0x00007ffd1471671f	48 8b 81 b0 00 00 00 	mov rax, qword ptr [rcx+0xb0]
0x00007ffd14716726	48 85 c0 	test rax, rax
0x00007ffd14716729	75 3f 	jnz 0x7ffd1471676a
0x00007ffd1471676a	f7 40 20 00 00 08 00 	(Ýj     rd ptr [rax+0x20], 0x80000
0x00007ffd14716771	75 b8 	jnz 0x7ffd1471672b
0x00007ffd14716773	48 39 48 38 	cmp qword ptr [rax+0x38], rcx
0x00007ffd14716777	74 b2 	jz 0x7ffd1471672b
0x00007ffd1471672b	ff c7 	inc edi
0x00007ffd1471672d	3b 7b 60 	cmp edi, dword ptr [rbx+0x60]
0x00007ffd14716730	72 e0 	jb 0x7ffd14716712
0x00007ffd14716712	48 8b 43 58 	mov rax, qword ptr [rbx+0x58]
0x00007ffd14716716	48 8b 0c f8 	mov rcx, qword ptr [rax+rdi*8]
0x00007ffd1471671a	48 85 c9 	test rcx, rcx
0x00007ffd1471671d	74 0c 	jz 0x7ffd1471672b
0x00007ffd1471671f	48 8b 81 b0 00 00 00 	mov rax, qword ptr [rcx+0xb0]
0x00007ffd14716726	48 85 c0 	test rax, rax
0x00007ffd14716729	75 3f 	jnz 0x7ffd1471676a
0x00007ffd1471676a	f7 40 20 00 00 08 00 	(Ýj     rd ptr [rax+0x20], 0x80000
0x00007ffd14716771	75 b8 	jnz 0x7ffd1471672b
0x00007ffd14716773	48 39 48 38 	cmp qword ptr [rax+0x38], rcx
0x00007ffd14716777	74 b2 	jz 0x7ffd1471672b
0x00007ffd1471672b	ff c7 	inc edi
0x00007ffd1471672d	3b 7b 60 	cmp edi, dword ptr [rbx+0x60]
0x00007ffd14716730	72 e0 	jb 0x7ffd14716712
0x00007ffd14716712	48 8b 43 58 	mov rax, qword ptr [rbx+0x58]
0x00007ffd14716716	48 8b 0c f8 	mov rcx, qword ptr [rax+rdi*8]
0x00007ffd1471671a	48 85 c9 	test rcx, rcx
0x00007ffd1471671d	74 0c 	jz 0x7ffd1471672b
0x00007ffd1471671f	48 8b 81 b0 00 00 00 	mov rax, qword ptr [rcx+0xb0]
0x00007ffd14716726	48 85 c0 	test rax, rax
0x00007ffd14716729	75 3f 	jnz 0x7ffd1471676a
0x00007ffd1471676a	f7 40 20 00 00 08 00 	(Ýj     rd ptr [rax+0x20], 0x80000
0x00007ffd14716771	75 b8 	jnz 0x7ffd1471672b
0x00007ffd14716773	48 39 48 38 	cmp qword ptr [rax+0x38], rcx
0x00007ffd14716777	74 b2 	jz 0x7ffd1471672b
0x00007ffd1471672b	ff c7 	inc edi
0x00007ffd1471672d	3b 7b 60 	cmp edi, dword ptr [rbx+0x60]
0x00007ffd14716730	72 e0 	jb 0x7ffd14716712
0x00007ffd14716712	48 8b 43 58 	mov rax, qword ptr [rbx+0x58]
0x00007ffd14716716	48 8b 0c f8 	mov rcx, qword ptr [rax+rdi*8]
0x00007ffd1471671a	48 85 c9 	test rcx, rcx
0x00007ffd1471671d	74 0c 	jz 0x7ffd1471672b
0x00007ffd1471671f	48 8b 81 b0 00 00 00 	mov rax, qword ptr [rcx+0xb0]
0x00007ffd14716726	48 85 c0 	test rax, rax
0x00007ffd14716729	75 3f 	jnz 0x7ffd1471676a
0x00007ffd1471676a	f7 40 20 00 00 08 00 	(Ýj     rd ptr [rax+0x20], 0x80000
0x00007ffd14716771	75 b8 	jnz 0x7ffd1471672b
0x00007ffd14716773	48 39 48 38 	cmp qword ptr [rax+0x38], rcx
0x00007ffd14716777	74 b2 	jz 0x7ffd1471672b
0x00007ffd1471672b	ff c7 	inc edi
0x00007ffd1471672d	3b 7b 60 	cmp edi, dword ptr [rbx+0x60]
0x00007ffd14716730	72 e0 	jb 0x7ffd14716712
0x00007ffd14716712	48 8b 43 58 	mov rax, qword ptr [rbx+0x58]
0x00007ffd14716716	48 8b 0c f8 	mov rcx, qword ptr [rax+rdi*8]
0x00007ffd1471671a	48 85 c9 	test rcx, rcx
0x00007ffd1471671d	74 0c 	jz 0x7ffd1471672b
0x00007ffd1471671f	48 8b 81 b0 00 00 00 	mov rax, qword ptr [rcx+0xb0]
0x00007ffd14716726	48 85 c0 	test rax, rax
0x00007ffd14716729	75 3f 	jnz 0x7ffd1471676a
0x00007ffd1471676a	f7 40 20 00 00 08 00 	(Ýj     rd ptr [rax+0x20], 0x80000
0x00007ffd14716771	75 b8 	jnz 0x7ffd1471672b
0x00007ffd14716773	48 39 48 38 	cmp qword ptr [rax+0x38], rcx
0x00007ffd14716777	74 b2 	jz 0x7ffd1471672b
0x00007ffd1471672b	ff c7 	inc edi
0x00007ffd1471672d	3b 7b 60 	cmp edi, dword ptr [rbx+0x60]
0x00007ffd14716730	72 e0 	jb 0x7ffd14716712
0x00007ffd14716712	48 8b 43 58 	mov rax, qword ptr [rbx+0x58]
0x00007ffd14716716	48 8b 0c f8 	mov rcx, qword ptr [rax+rdi*8]
0x00007ffd1471671a	48 85 c9 	test rcx, rcx
0x00007ffd1471671d	74 0c 	jz 0x7ffd1471672b
0x00007ffd1471671f	48 8b 81 b0 00 00 00 	mov rax, qword ptr [rcx+0xb0]
0x00007ffd14716726	48 85 c0 	test rax, rax
0x00007ffd14716729	75 3f 	jnz 0x7ffd1471676a
0x00007ffd1471676a	f7 40 20 00 00 08 00 	(Ýj     rd ptr [rax+0x20], 0x80000
0x00007ffd14716771	75 b8 	jnz 0x7ffd1471672b
0x00007ffd14716773	48 39 48 38 	cmp qword ptr [rax+0x38], rcx
0x00007ffd14716777	74 b2 	jz 0x7ffd1471672b
0x00007ffd1471672b	ff c7 	inc edi
0x00007ffd1471672d	3b 7b 60 	cmp edi, dword ptr [rbx+0x60]
0x00007ffd14716730	72 e0 	jb 0x7ffd14716712
0x00007ffd14716712	48 8b 43 58 	mov rax, qword ptr [rbx+0x58]
0x00007ffd14716716	48 8b 0c f8 	mov rcx, qword ptr [rax+rdi*8]
0x00007ffd1471671a	48 85 c9 	test rcx, rcx
0x00007ffd1471671d	74 0c 	jz 0x7ffd1471672b
0x00007ffd1471671f	48 8b 81 b0 00 00 00 	mov rax, qword ptr [rcx+0xb0]
0x00007ffd14716726	48 85 c0 	test rax, rax
0x00007ffd14716729	75 3f 	jnz 0x7ffd1471676a
0x00007ffd1471676a	f7 40 20 00 00 08 00 	(Ýj     rd ptr [rax+0x20], 0x80000
0x00007ffd14716771	75 b8 	jnz 0x7ffd1471672b
0x00007ffd14716773	48 39 48 38 	cmp qword ptr [rax+0x38], rcx
0x00007ffd14716777	74 b2 	jz 0x7ffd1471672b
0x00007ffd1471672b	ff c7 	inc edi
0x00007ffd1471672d	3b 7b 60 	cmp edi, dword ptr [rbx+0x60]
0x00007ffd14716730	72 e0 	jb 0x7ffd14716712
0x00007ffd14716712	48 8b 43 58 	mov rax, qword ptr [rbx+0x58]
0x00007ffd14716716	48 8b 0c f8 	mov rcx, qword ptr [rax+rdi*8]
0x00007ffd1471671a	48 85 c9 	test rcx, rcx
0x00007ffd1471671d	74 0c 	jz 0x7ffd1471672b
0x00007ffd1471671f	48 8b 81 b0 00 00 00 	mov rax, qword ptr [rcx+0xb0]
0x00007ffd14716726	48 85 c0 	test rax, rax
0x00007ffd14716729	75 3f 	jnz 0x7ffd1471676a
0x00007ffd1471676a	f7 40 20 00 00 08 00 	(Ýj     rd ptr [rax+0x20], 0x80000
0x00007ffd14716771	75 b8 	jnz 0x7ffd1471672b
0x00007ffd14716773	48 39 48 38 	cmp qword ptr [rax+0x38], rcx
0x00007ffd14716777	74 b2 	jz 0x7ffd1471672b
0x00007ffd1471672b	ff c7 	inc edi
0x00007ffd1471672d	3b 7b 60 	cmp edi, dword ptr [rbx+0x60]
0x00007ffd14716730	72 e0 	jb 0x7ffd14716712
0x00007ffd14716712	48 8b 43 58 	mov rax, qword ptr [rbx+0x58]
0x00007ffd14716716	48 8b 0c f8 	mov rcx, qword ptr [rax+rdi*8]
0x00007ffd1471671a	48 85 c9 	test rcx, rcx
0x00007ffd1471671d	74 0c 	jz 0x7ffd1471672b
0x00007ffd1471671f	48 8b 81 b0 00 00 00 	mov rax, qword ptr [rcx+0xb0]
0x00007ffd14716726	48 85 c0 	test rax, rax
0x00007ffd14716729	75 3f 	jnz 0x7ffd1471676a
0x00007ffd1471676a	f7 40 20 00 00 08 00 	(Ýj     rd ptr [rax+0x20], 0x80000
0x00007ffd14716771	75 b8 	jnz 0x7ffd1471672b
0x00007ffd14716773	48 39 48 38 	cmp qword ptr [rax+0x38], rcx
0x00007ffd14716777	74 b2 	jz 0x7ffd1471672b
0x00007ffd1471672b	ff c7 	inc edi
0x00007ffd1471672d	3b 7b 60 	cmp edi, dword ptr [rbx+0x60]
0x00007ffd14716730	72 e0 	jb 0x7ffd14716712
0x00007ffd14716712	48 8b 43 58 	mov rax, qword ptr [rbx+0x58]
0x00007ffd14716716	48 8b 0c f8 	mov rcx, qword ptr [rax+rdi*8]
0x00007ffd1471671a	48 85 c9 	test rcx, rcx
0x00007ffd1471671d	74 0c 	jz 0x7ffd1471672b
0x00007ffd1471671f	48 8b 81 b0 00 00 00 	mov rax, qword ptr [rcx+0xb0]
0x00007ffd14716726	48 85 c0 	test rax, rax
0x00007ffd14716729	75 3f 	jnz 0x7ffd1471676a
0x00007ffd1471676a	f7 40 20 00 00 08 00 	(Ýj     rd ptr [rax+0x20], 0x80000
0x00007ffd14716771	75 b8 	jnz 0x7ffd1471672b
0x00007ffd14716773	48 39 48 38 	cmp qword ptr [rax+0x38], rcx
0x00007ffd14716777	74 b2 	jz 0x7ffd1471672b
0x00007ffd1471672b	ff c7 	inc edi
0x00007ffd1471672d	3b 7b 60 	cmp edi, dword ptr [rbx+0x60]
0x00007ffd14716730	72 e0 	jb 0x7ffd14716712
0x00007ffd14716712	48 8b 43 58 	mov rax, qword ptr [rbx+0x58]
0x00007ffd14716716	48 8b 0c f8 	mov rcx, qword ptr [rax+rdi*8]
0x00007ffd1471671a	48 85 c9 	test rcx, rcx
0x00007ffd1471671d	74 0c 	jz 0x7ffd1471672b
0x00007ffd1471671f	48 8b 81 b0 00 00 00 	mov rax, qword ptr [rcx+0xb0]
0x00007ffd14716726	48 85 c0 	test rax, rax
0x00007ffd14716729	75 3f 	jnz 0x7ffd1471676a
0x00007ffd1471676a	f7 40 20 00 00 08 00 	(Ýj     rd ptr [rax+0x20], 0x80000
0x00007ffd14716771	75 b8 	jnz 0x7ffd1471672b
0x00007ffd14716773	48 39 48 38 	cmp qword ptr [rax+0x38], rcx
0x00007ffd14716777	74 b2 	jz 0x7ffd1471672b
0x00007ffd1471672b	ff c7 	inc edi
0x00007ffd1471672d	3b 7b 60 	cmp edi, dword ptr [rbx+0x60]
0x00007ffd14716730	72 e0 	jb 0x7ffd14716712
0x00007ffd14716712	48 8b 43 58 	mov rax, qword ptr [rbx+0x58]
0x00007ffd14716716	48 8b 0c f8 	mov rcx, qword ptr [rax+rdi*8]
0x00007ffd1471671a	48 85 c9 	test rcx, rcx
0x00007ffd1471671d	74 0c 	jz 0x7ffd1471672b
0x00007ffd1471671f	48 8b 81 b0 00 00 00 	mov rax, qword ptr [rcx+0xb0]
0x00007ffd14716726	48 85 c0 	test rax, rax
0x00007ffd14716729	75 3f 	jnz 0x7ffd1471676a
0x00007ffd1471676a	f7 40 20 00 00 08 00 	(Ýj     rd ptr [rax+0x20], 0x80000
0x00007ffd14716771	75 b8 	jnz 0x7ffd1471672b
0x00007ffd14716773	48 39 48 38 	cmp qword ptr [rax+0x38], rcx
0x00007ffd14716777	74 b2 	jz 0x7ffd1471672b
0x00007ffd1471672b	ff c7 	inc edi
0x00007ffd1471672d	3b 7b 60 	cmp edi, dword ptr [rbx+0x60]
0x00007ffd14716730	72 e0 	jb 0x7ffd14716712
0x00007ffd14716712	48 8b 43 58 	mov rax, qword ptr [rbx+0x58]
0x00007ffd14716716	48 8b 0c f8 	mov rcx, qword ptr [rax+rdi*8]
0x00007ffd1471671a	48 85 c9 	test rcx, rcx
0x00007ffd1471671d	74 0c 	jz 0x7ffd1471672b
0x00007ffd1471671f	48 8b 81 b0 00 00 00 	mov rax, qword ptr [rcx+0xb0]
0x00007ffd14716726	48 85 c0 	test rax, rax
0x00007ffd14716729	75 3f 	jnz 0x7ffd1471676a
0x00007ffd1471676a	f7 40 20 00 00 08 00 	(Ýj     rd ptr [rax+0x20], 0x80000
0x00007ffd14716771	75 b8 	jnz 0x7ffd1471672b
0x00007ffd14716773	48 39 48 38 	cmp qword ptr [rax+0x38], rcx
0x00007ffd14716777	74 b2 	jz 0x7ffd1471672b
0x00007ffd1471672b	ff c7 	inc edi
0x00007ffd1471672d	3b 7b 60 	cmp edi, dword ptr [rbx+0x60]
0x00007ffd14716730	72 e0 	jb 0x7ffd14716712
0x00007ffd14716712	48 8b 43 58 	mov rax, qword ptr [rbx+0x58]
0x00007ffd14716716	48 8b 0c f8 	mov rcx, qword ptr [rax+rdi*8]
0x00007ffd1471671a	48 85 c9 	test rcx, rcx
0x00007ffd1471671d	74 0c 	jz 0x7ffd1471672b
0x00007ffd1471671f	48 8b 81 b0 00 00 00 	mov rax, qword ptr [rcx+0xb0]
0x00007ffd14716726	48 85 c0 	test rax, rax
0x00007ffd14716729	75 3f 	jnz 0x7ffd1471676a
0x00007ffd1471676a	f7 40 20 00 00 08 00 	(Ýj     rd ptr [rax+0x20], 0x80000
0x00007ffd14716771	75 b8 	jnz 0x7ffd1471672b
0x00007ffd14716773	48 39 48 38 	cmp qword ptr [rax+0x38], rcx
0x00007ffd14716777	74 b2 	jz 0x7ffd1471672b
0x00007ffd1471672b	ff c7 	inc edi
0x00007ffd1471672d	3b 7b 60 	cmp edi, dword ptr [rbx+0x60]
0x00007ffd14716730	72 e0 	jb 0x7ffd14716712
0x00007ffd14716712	48 8b 43 58 	mov rax, qword ptr [rbx+0x58]
0x00007ffd14716716	48 8b 0c f8 	mov rcx, qword ptr [rax+rdi*8]
0x00007ffd1471671a	48 85 c9 	test rcx, rcx
0x00007ffd1471671d	74 0c 	jz 0x7ffd1471672b
0x00007ffd1471671f	48 8b 81 b0 00 00 00 	mov rax, qword ptr [rcx+0xb0]
0x00007ffd14716726	48 85 c0 	test rax, rax
0x00007ffd14716729	75 3f 	jnz 0x7ffd1471676a
0x00007ffd1471676a	f7 40 20 00 00 08 00 	(Ýj     rd ptr [rax+0x20], 0x80000
0x00007ffd14716771	75 b8 	jnz 0x7ffd1471672b
0x00007ffd14716773	48 39 48 38 	cmp qword ptr [rax+0x38], rcx
0x00007ffd14716777	74 b2 	jz 0x7ffd1471672b
0x00007ffd1471672b	ff c7 	inc edi
0x00007ffd1471672d	3b 7b 60 	cmp edi, dword ptr [rbx+0x60]
0x00007ffd14716730	72 e0 	jb 0x7ffd14716712
0x00007ffd14716712	48 8b 43 58 	mov rax, qword ptr [rbx+0x58]
0x00007ffd14716716	48 8b 0c f8 	mov rcx, qword ptr [rax+rdi*8]
0x00007ffd1471671a	48 85 c9 	test rcx, rcx
0x00007ffd1471671d	74 0c 	jz 0x7ffd1471672b
0x00007ffd1471671f	48 8b 81 b0 00 00 00 	mov rax, qword ptr [rcx+0xb0]
0x00007ffd14716726	48 85 c0 	test rax, rax
0x00007ffd14716729	75 3f 	jnz 0x7ffd1471676a
0x00007ffd1471676a	f7 40 20 00 00 08 00 	(Ýj     rd ptr [rax+0x20], 0x80000
0x00007ffd14716771	75 b8 	jnz 0x7ffd1471672b
0x00007ffd14716773	48 39 48 38 	cmp qword ptr [rax+0x38], rcx
0x00007ffd14716777	74 b2 	jz 0x7ffd1471672b
0x00007ffd1471672b	ff c7 	inc edi
0x00007ffd1471672d	3b 7b 60 	cmp edi, dword ptr [rbx+0x60]
0x00007ffd14716730	72 e0 	jb 0x7ffd14716712
0x00007ffd14716712	48 8b 43 58 	mov rax, qword ptr [rbx+0x58]
0x00007ffd14716716	48 8b 0c f8 	mov rcx, qword ptr [rax+rdi*8]
0x00007ffd1471671a	48 85 c9 	test rcx, rcx
0x00007ffd1471671d	74 0c 	jz 0x7ffd1471672b
0x00007ffd1471671f	48 8b 81 b0 00 00 00 	mov rax, qword ptr [rcx+0xb0]
0x00007ffd14716726	48 85 c0 	test rax, rax
0x00007ffd14716729	75 3f 	jnz 0x7ffd1471676a
0x00007ffd1471676a	f7 40 20 00 00 08 00 	(Ýj     rd ptr [rax+0x20], 0x80000
0x00007ffd14716771	75 b8 	jnz 0x7ffd1471672b
0x00007ffd14716773	48 39 48 38 	cmp qword ptr [rax+0x38], rcx
0x00007ffd14716777	74 b2 	jz 0x7ffd1471672b
0x00007ffd1471672b	ff c7 	inc edi
0x00007ffd1471672d	3b 7b 60 	cmp edi, dword ptr [rbx+0x60]
0x00007ffd14716730	72 e0 	jb 0x7ffd14716712
0x00007ffd14716712	48 8b 43 58 	mov rax, qword ptr [rbx+0x58]
0x00007ffd14716716	48 8b 0c f8 	mov rcx, qword ptr [rax+rdi*8]
0x00007ffd1471671a	48 85 c9 	test rcx, rcx
0x00007ffd1471671d	74 0c 	jz 0x7ffd1471672b
0x00007ffd1471671f	48 8b 81 b0 00 00 00 	mov rax, qword ptr [rcx+0xb0]
0x00007ffd14716726	48 85 c0 	test rax, rax
0x00007ffd14716729	75 3f 	jnz 0x7ffd1471676a
0x00007ffd1471676a	f7 40 20 00 00 08 00 	(Ýj     rd ptr [rax+0x20], 0x80000
0x00007ffd14716771	75 b8 	jnz 0x7ffd1471672b
0x00007ffd14716773	48 39 48 38 	cmp qword ptr [rax+0x38], rcx
0x00007ffd14716777	74 b2 	jz 0x7ffd1471672b
0x00007ffd1471672b	ff c7 	inc edi
0x00007ffd1471672d	3b 7b 60 	cmp edi, dword ptr [rbx+0x60]
0x00007ffd14716730	72 e0 	jb 0x7ffd14716712
0x00007ffd14716712	48 8b 43 58 	mov rax, qword ptr [rbx+0x58]
0x00007ffd14716716	48 8b 0c f8 	mov rcx, qword ptr [rax+rdi*8]
0x00007ffd1471671a	48 85 c9 	test rcx, rcx
0x00007ffd1471671d	74 0c 	jz 0x7ffd1471672b
0x00007ffd1471671f	48 8b 81 b0 00 00 00 	mov rax, qword ptr [rcx+0xb0]
0x00007ffd14716726	48 85 c0 	test rax, rax
0x00007ffd14716729	75 3f 	jnz 0x7ffd1471676a
0x00007ffd1471676a	f7 40 20 00 00 08 00 	(Ýj     rd ptr [rax+0x20], 0x80000
0x00007ffd14716771	75 b8 	jnz 0x7ffd1471672b
0x00007ffd14716773	48 39 48 38 	cmp qword ptr [rax+0x38], rcx
0x00007ffd14716777	74 b2 	jz 0x7ffd1471672b
0x00007ffd1471672b	ff c7 	inc edi
0x00007ffd1471672d	3b 7b 60 	cmp edi, dword ptr [rbx+0x60]
0x00007ffd14716730	72 e0 	jb 0x7ffd14716712
0x00007ffd14716712	48 8b 43 58 	mov rax, qword ptr [rbx+0x58]
0x00007ffd14716716	48 8b 0c f8 	mov rcx, qword ptr [rax+rdi*8]
0x00007ffd1471671a	48 85 c9 	test rcx, rcx
0x00007ffd1471671d	74 0c 	jz 0x7ffd1471672b
0x00007ffd1471671f	48 8b 81 b0 00 00 00 	mov rax, qword ptr [rcx+0xb0]
0x00007ffd14716726	48 85 c0 	test rax, rax
0x00007ffd14716729	75 3f 	jnz 0x7ffd1471676a
0x00007ffd1471676a	f7 40 20 00 00 08 00 	(Ýj     rd ptr [rax+0x20], 0x80000
0x00007ffd14716771	75 b8 	jnz 0x7ffd1471672b
0x00007ffd14716773	48 39 48 38 	cmp qword ptr [rax+0x38], rcx
0x00007ffd14716777	74 b2 	jz 0x7ffd1471672b
0x00007ffd1471672b	ff c7 	inc edi
0x00007ffd1471672d	3b 7b 60 	cmp edi, dword ptr [rbx+0x60]
0x00007ffd14716730	72 e0 	jb 0x7ffd14716712
0x00007ffd14716712	48 8b 43 58 	mov rax, qword ptr [rbx+0x58]
0x00007ffd14716716	48 8b 0c f8 	mov rcx, qword ptr [rax+rdi*8]
0x00007ffd1471671a	48 85 c9 	test rcx, rcx
0x00007ffd1471671d	74 0c 	jz 0x7ffd1471672b
0x00007ffd1471671f	48 8b 81 b0 00 00 00 	mov rax, qword ptr [rcx+0xb0]
0x00007ffd14716726	48 85 c0 	test rax, rax
0x00007ffd14716729	75 3f 	jnz 0x7ffd1471676a
0x00007ffd1471676a	f7 40 20 00 00 08 00 	(Ýj     rd ptr [rax+0x20], 0x80000
0x00007ffd14716771	75 b8 	jnz 0x7ffd1471672b
0x00007ffd14716773	48 39 48 38 	cmp qword ptr [rax+0x38], rcx
0x00007ffd14716777	74 b2 	jz 0x7ffd1471672b
0x00007ffd1471672b	ff c7 	inc edi
0x00007ffd1471672d	3b 7b 60 	cmp edi, dword ptr [rbx+0x60]
0x00007ffd14716730	72 e0 	jb 0x7ffd14716712
0x00007ffd14716712	48 8b 43 58 	mov rax, qword ptr [rbx+0x58]
0x00007ffd14716716	48 8b 0c f8 	mov rcx, qword ptr [rax+rdi*8]
0x00007ffd1471671a	48 85 c9 	test rcx, rcx
0x00007ffd1471671d	74 0c 	jz 0x7ffd1471672b
0x00007ffd1471671f	48 8b 81 b0 00 00 00 	mov rax, qword ptr [rcx+0xb0]
0x00007ffd14716726	48 85 c0 	test rax, rax
0x00007ffd14716729	75 3f 	jnz 0x7ffd1471676a
0x00007ffd1471676a	f7 40 20 00 00 08 00 	(Ýj     rd ptr [rax+0x20], 0x80000
0x00007ffd14716771	75 b8 	jnz 0x7ffd1471672b
0x00007ffd14716773	48 39 48 38 	cmp qword ptr [rax+0x38], rcx
0x00007ffd14716777	74 b2 	jz 0x7ffd1471672b
0x00007ffd1471672b	ff c7 	inc edi
0x00007ffd1471672d	3b 7b 60 	cmp edi, dword ptr [rbx+0x60]
0x00007ffd14716730	72 e0 	jb 0x7ffd14716712
0x00007ffd14716712	48 8b 43 58 	mov rax, qword ptr [rbx+0x58]
0x00007ffd14716716	48 8b 0c f8 	mov rcx, qword ptr [rax+rdi*8]
0x00007ffd1471671a	48 85 c9 	test rcx, rcx
0x00007ffd1471671d	74 0c 	jz 0x7ffd1471672b
0x00007ffd1471671f	48 8b 81 b0 00 00 00 	mov rax, qword ptr [rcx+0xb0]
0x00007ffd14716726	48 85 c0 	test rax, rax
0x00007ffd14716729	75 3f 	jnz 0x7ffd1471676a
0x00007ffd1471676a	f7 40 20 00 00 08 00 	(Ýj     rd ptr [rax+0x20], 0x80000
0x00007ffd14716771	75 b8 	jnz 0x7ffd1471672b
0x00007ffd14716773	48 39 48 38 	cmp qword ptr [rax+0x38], rcx
0x00007ffd14716777	74 b2 	jz 0x7ffd1471672b
0x00007ffd1471672b	ff c7 	inc edi
0x00007ffd1471672d	3b 7b 60 	cmp edi, dword ptr [rbx+0x60]
0x00007ffd14716730	72 e0 	jb 0x7ffd14716712
0x00007ffd14716712	48 8b 43 58 	mov rax, qword ptr [rbx+0x58]
0x00007ffd14716716	48 8b 0c f8 	mov rcx, qword ptr [rax+rdi*8]
0x00007ffd1471671a	48 85 c9 	test rcx, rcx
0x00007ffd1471671d	74 0c 	jz 0x7ffd1471672b
0x00007ffd1471671f	48 8b 81 b0 00 00 00 	mov rax, qword ptr [rcx+0xb0]
0x00007ffd14716726	48 85 c0 	test rax, rax
0x00007ffd14716729	75 3f 	jnz 0x7ffd1471676a
0x00007ffd1471676a	f7 40 20 00 00 08 00 	(Ýj     rd ptr [rax+0x20], 0x80000
0x00007ffd14716771	75 b8 	jnz 0x7ffd1471672b
0x00007ffd14716773	48 39 48 38 	cmp qword ptr [rax+0x38], rcx
0x00007ffd14716777	74 b2 	jz 0x7ffd1471672b
0x00007ffd1471672b	ff c7 	inc edi
0x00007ffd1471672d	3b 7b 60 	cmp edi, dword ptr [rbx+0x60]
0x00007ffd14716730	72 e0 	jb 0x7ffd14716712
0x00007ffd14716712	48 8b 43 58 	mov rax, qword ptr [rbx+0x58]
0x00007ffd14716716	48 8b 0c f8 	mov rcx, qword ptr [rax+rdi*8]
0x00007ffd1471671a	48 85 c9 	test rcx, rcx
0x00007ffd1471671d	74 0c 	jz 0x7ffd1471672b
0x00007ffd1471671f	48 8b 81 b0 00 00 00 	mov rax, qword ptr [rcx+0xb0]
0x00007ffd14716726	48 85 c0 	test rax, rax
0x00007ffd14716729	75 3f 	jnz 0x7ffd1471676a
0x00007ffd1471676a	f7 40 20 00 00 08 00 	(Ýj     rd ptr [rax+0x20], 0x80000
0x00007ffd14716771	75 b8 	jnz 0x7ffd1471672b
0x00007ffd14716773	48 39 48 38 	cmp qword ptr [rax+0x38], rcx
0x00007ffd14716777	74 b2 	jz 0x7ffd1471672b
0x00007ffd1471672b	ff c7 	inc edi
0x00007ffd1471672d	3b 7b 60 	cmp edi, dword ptr [rbx+0x60]
0x00007ffd14716730	72 e0 	jb 0x7ffd14716712
0x00007ffd14716712	48 8b 43 58 	mov rax, qword ptr [rbx+0x58]
0x00007ffd14716716	48 8b 0c f8 	mov rcx, qword ptr [rax+rdi*8]
0x00007ffd1471671a	48 85 c9 	test rcx, rcx
0x00007ffd1471671d	74 0c 	jz 0x7ffd1471672b
0x00007ffd1471671f	48 8b 81 b0 00 00 00 	mov rax, qword ptr [rcx+0xb0]
0x00007ffd14716726	48 85 c0 	test rax, rax
0x00007ffd14716729	75 3f 	jnz 0x7ffd1471676a
0x00007ffd1471676a	f7 40 20 00 00 08 00 	(Ýj     rd ptr [rax+0x20], 0x80000
0x00007ffd14716771	75 b8 	jnz 0x7ffd1471672b
0x00007ffd14716773	48 39 48 38 	cmp qword ptr [rax+0x38], rcx
0x00007ffd14716777	74 b2 	jz 0x7ffd1471672b
0x00007ffd1471672b	ff c7 	inc edi
0x00007ffd1471672d	3b 7b 60 	cmp edi, dword ptr [rbx+0x60]
0x00007ffd14716730	72 e0 	jb 0x7ffd14716712
0x00007ffd14716712	48 8b 43 58 	mov rax, qword ptr [rbx+0x58]
0x00007ffd14716716	48 8b 0c f8 	mov rcx, qword ptr [rax+rdi*8]
0x00007ffd1471671a	48 85 c9 	test rcx, rcx
0x00007ffd1471671d	74 0c 	jz 0x7ffd1471672b
0x00007ffd1471671f	48 8b 81 b0 00 00 00 	mov rax, qword ptr [rcx+0xb0]
0x00007ffd14716726	48 85 c0 	test rax, rax
0x00007ffd14716729	75 3f 	jnz 0x7ffd1471676a
0x00007ffd1471676a	f7 40 20 00 00 08 00 	(Ýj     rd ptr [rax+0x20], 0x80000
0x00007ffd14716771	75 b8 	jnz 0x7ffd1471672b
0x00007ffd14716773	48 39 48 38 	cmp qword ptr [rax+0x38], rcx
0x00007ffd14716777	74 b2 	jz 0x7ffd1471672b
0x00007ffd1471672b	ff c7 	inc edi
0x00007ffd1471672d	3b 7b 60 	cmp edi, dword ptr [rbx+0x60]
0x00007ffd14716730	72 e0 	jb 0x7ffd14716712
0x00007ffd14716712	48 8b 43 58 	mov rax, qword ptr [rbx+0x58]
0x00007ffd14716716	48 8b 0c f8 	mov rcx, qword ptr [rax+rdi*8]
0x00007ffd1471671a	48 85 c9 	test rcx, rcx
0x00007ffd1471671d	74 0c 	jz 0x7ffd1471672b
0x00007ffd1471671f	48 8b 81 b0 00 00 00 	mov rax, qword ptr [rcx+0xb0]
0x00007ffd14716726	48 85 c0 	test rax, rax
0x00007ffd14716729	75 3f 	jnz 0x7ffd1471676a
0x00007ffd1471676a	f7 40 20 00 00 08 00 	(Ýj     rd ptr [rax+0x20], 0x80000
0x00007ffd14716771	75 b8 	jnz 0x7ffd1471672b
0x00007ffd14716773	48 39 48 38 	cmp qword ptr [rax+0x38], rcx
0x00007ffd14716777	74 b2 	jz 0x7ffd1471672b
0x00007ffd1471672b	ff c7 	inc edi
0x00007ffd1471672d	3b 7b 60 	cmp edi, dword ptr [rbx+0x60]
0x00007ffd14716730	72 e0 	jb 0x7ffd14716712
0x00007ffd14716712	48 8b 43 58 	mov rax, qword ptr [rbx+0x58]
0x00007ffd14716716	48 8b 0c f8 	mov rcx, qword ptr [rax+rdi*8]
0x00007ffd1471671a	48 85 c9 	test rcx, rcx
0x00007ffd1471671d	74 0c 	jz 0x7ffd1471672b
0x00007ffd1471671f	48 8b 81 b0 00 00 00 	mov rax, qword ptr [rcx+0xb0]
0x00007ffd14716726	48 85 c0 	test rax, rax
0x00007ffd14716729	75 3f 	jnz 0x7ffd1471676a
0x00007ffd1471676a	f7 40 20 00 00 08 00 	(Ýj     rd ptr [rax+0x20], 0x80000
0x00007ffd14716771	75 b8 	jnz 0x7ffd1471672b
0x00007ffd14716773	48 39 48 38 	cmp qword ptr [rax+0x38], rcx
0x00007ffd14716777	74 b2 	jz 0x7ffd1471672b
0x00007ffd1471672b	ff c7 	inc edi
0x00007ffd1471672d	3b 7b 60 	cmp edi, dword ptr [rbx+0x60]
0x00007ffd14716730	72 e0 	jb 0x7ffd14716712
0x00007ffd14716712	48 8b 43 58 	mov rax, qword ptr [rbx+0x58]
0x00007ffd14716716	48 8b 0c f8 	mov rcx, qword ptr [rax+rdi*8]
0x00007ffd1471671a	48 85 c9 	test rcx, rcx
0x00007ffd1471671d	74 0c 	jz 0x7ffd1471672b
0x00007ffd1471671f	48 8b 81 b0 00 00 00 	mov rax, qword ptr [rcx+0xb0]
0x00007ffd14716726	48 85 c0 	test rax, rax
0x00007ffd14716729	75 3f 	jnz 0x7ffd1471676a
0x00007ffd1471676a	f7 40 20 00 00 08 00 	(Ýj     rd ptr [rax+0x20], 0x80000
0x00007ffd14716771	75 b8 	jnz 0x7ffd1471672b
0x00007ffd14716773	48 39 48 38 	cmp qword ptr [rax+0x38], rcx
0x00007ffd14716777	74 b2 	jz 0x7ffd1471672b
0x00007ffd1471672b	ff c7 	inc edi
0x00007ffd1471672d	3b 7b 60 	cmp edi, dword ptr [rbx+0x60]
0x00007ffd14716730	72 e0 	jb 0x7ffd14716712
0x00007ffd14716712	48 8b 43 58 	mov rax, qword ptr [rbx+0x58]
0x00007ffd14716716	48 8b 0c f8 	mov rcx, qword ptr [rax+rdi*8]
0x00007ffd1471671a	48 85 c9 	test rcx, rcx
0x00007ffd1471671d	74 0c 	jz 0x7ffd1471672b
0x00007ffd1471671f	48 8b 81 b0 00 00 00 	mov rax, qword ptr [rcx+0xb0]
0x00007ffd14716726	48 85 c0 	test rax, rax
0x00007ffd14716729	75 3f 	jnz 0x7ffd1471676a
0x00007ffd1471676a	f7 40 20 00 00 08 00 	(Ýj     rd ptr [rax+0x20], 0x80000
0x00007ffd14716771	75 b8 	jnz 0x7ffd1471672b
0x00007ffd14716773	48 39 48 38 	cmp qword ptr [rax+0x38], rcx
0x00007ffd14716777	74 b2 	jz 0x7ffd1471672b
0x00007ffd1471672b	ff c7 	inc edi
0x00007ffd1471672d	3b 7b 60 	cmp edi, dword ptr [rbx+0x60]
0x00007ffd14716730	72 e0 	jb 0x7ffd14716712
0x00007ffd14716712	48 8b 43 58 	mov rax, qword ptr [rbx+0x58]
0x00007ffd14716716	48 8b 0c f8 	mov rcx, qword ptr [rax+rdi*8]
0x00007ffd1471671a	48 85 c9 	test rcx, rcx
0x00007ffd1471671d	74 0c 	jz 0x7ffd1471672b
0x00007ffd1471671f	48 8b 81 b0 00 00 00 	mov rax, qword ptr [rcx+0xb0]
0x00007ffd14716726	48 85 c0 	test rax, rax
0x00007ffd14716729	75 3f 	jnz 0x7ffd1471676a
0x00007ffd1471676a	f7 40 20 00 00 08 00 	(Ýj     rd ptr [rax+0x20], 0x80000
0x00007ffd14716771	75 b8 	jnz 0x7ffd1471672b
0x00007ffd14716773	48 39 48 38 	cmp qword ptr [rax+0x38], rcx
0x00007ffd14716777	74 b2 	jz 0x7ffd1471672b
0x00007ffd1471672b	ff c7 	inc edi
0x00007ffd1471672d	3b 7b 60 	cmp edi, dword ptr [rbx+0x60]
0x00007ffd14716730	72 e0 	jb 0x7ffd14716712
0x00007ffd14716712	48 8b 43 58 	mov rax, qword ptr [rbx+0x58]
0x00007ffd14716716	48 8b 0c f8 	mov rcx, qword ptr [rax+rdi*8]
0x00007ffd1471671a	48 85 c9 	test rcx, rcx
0x00007ffd1471671d	74 0c 	jz 0x7ffd1471672b
0x00007ffd1471671f	48 8b 81 b0 00 00 00 	mov rax, qword ptr [rcx+0xb0]
0x00007ffd14716726	48 85 c0 	test rax, rax
0x00007ffd14716729	75 3f 	jnz 0x7ffd1471676a
0x00007ffd1471676a	f7 40 20 00 00 08 00 	(Ýj     rd ptr [rax+0x20], 0x80000
0x00007ffd14716771	75 b8 	jnz 0x7ffd1471672b
0x00007ffd14716773	48 39 48 38 	cmp qword ptr [rax+0x38], rcx
0x00007ffd14716777	74 b2 	jz 0x7ffd1471672b
0x00007ffd1471672b	ff c7 	inc edi
0x00007ffd1471672d	3b 7b 60 	cmp edi, dword ptr [rbx+0x60]
0x00007ffd14716730	72 e0 	jb 0x7ffd14716712
0x00007ffd14716712	48 8b 43 58 	mov rax, qword ptr [rbx+0x58]
0x00007ffd14716716	48 8b 0c f8 	mov rcx, qword ptr [rax+rdi*8]
0x00007ffd1471671a	48 85 c9 	test rcx, rcx
0x00007ffd1471671d	74 0c 	jz 0x7ffd1471672b
0x00007ffd1471671f	48 8b 81 b0 00 00 00 	mov rax, qword ptr [rcx+0xb0]
0x00007ffd14716726	48 85 c0 	test rax, rax
0x00007ffd14716729	75 3f 	jnz 0x7ffd1471676a
0x00007ffd1471672b	ff c7 	inc edi
0x00007ffd1471672d	3b 7b 60 	cmp edi, dword ptr [rbx+0x60]
0x00007ffd14716730	72 e0 	jb 0x7ffd14716712
0x00007ffd14716712	48 8b 43 58 	mov rax, qword ptr [rbx+0x58]
0x00007ffd14716716	48 8b 0c f8 	mov rcx, qword ptr [rax+rdi*8]
0x00007ffd1471671a	48 85 c9 	test rcx, rcx
0x00007ffd1471671d	74 0c 	jz 0x7ffd1471672b
0x00007ffd1471671f	48 8b 81 b0 00 00 00 	mov rax, qword ptr [rcx+0xb0]
0x00007ffd14716726	48 85 c0 	test rax, rax
0x00007ffd14716729	75 3f 	jnz 0x7ffd1471676a
0x00007ffd1471676a	f7 40 20 00 00 08 00 	(Ýj     rd ptr [rax+0x20], 0x80000
0x00007ffd14716771	75 b8 	jnz 0x7ffd1471672b
0x00007ffd14716773	48 39 48 38 	cmp qword ptr [rax+0x38], rcx
0x00007ffd14716777	74 b2 	jz 0x7ffd1471672b
0x00007ffd1471672b	ff c7 	inc edi
0x00007ffd1471672d	3b 7b 60 	cmp edi, dword ptr [rbx+0x60]
0x00007ffd14716730	72 e0 	jb 0x7ffd14716712
0x00007ffd14716712	48 8b 43 58 	mov rax, qword ptr [rbx+0x58]
0x00007ffd14716716	48 8b 0c f8 	mov rcx, qword ptr [rax+rdi*8]
0x00007ffd1471671a	48 85 c9 	test rcx, rcx
0x00007ffd1471671d	74 0c 	jz 0x7ffd1471672b
0x00007ffd1471671f	48 8b 81 b0 00 00 00 	mov rax, qword ptr [rcx+0xb0]
0x00007ffd14716726	48 85 c0 	test rax, rax
0x00007ffd14716729	75 3f 	jnz 0x7ffd1471676a
0x00007ffd1471676a	f7 40 20 00 00 08 00 	(Ýj     rd ptr [rax+0x20], 0x80000
0x00007ffd14716771	75 b8 	jnz 0x7ffd1471672b
0x00007ffd14716773	48 39 48 38 	cmp qword ptr [rax+0x38], rcx
0x00007ffd14716777	74 b2 	jz 0x7ffd1471672b
0x00007ffd1471672b	ff c7 	inc edi
0x00007ffd1471672d	3b 7b 60 	cmp edi, dword ptr [rbx+0x60]
0x00007ffd14716730	72 e0 	jb 0x7ffd14716712
0x00007ffd14716732	4c 8b 43 58 	mov r8, qword ptr [rbx+0x58]
0x00007ffd14716736	48 8b 0d e3 5d 10 00 	mov rcx, qword ptr [rip+0x105de3]
0x00007ffd1471673d	33 d2 	xor edx, edx
0x00007ffd1471673f	e8 1c e0 fb ff 	call 0x7ffd146d4760
0x00007ffd146d4760	48 89 5c 24 08 	mov qword ptr [rsp+0x8], rbx
0x00007ffd146d4765	48 89 74 24 10 	mov qword ptr [rsp+0x10], rsi
0x00007ffd146d476a	57 	push rdi
0x00007ffd146d476b	48 83 ec 30 	sub rsp, 0x30
0x00007ffd146d476f	49 8b f8 	mov rdi, r8
0x00007ffd146d4772	8b f2 	mov esi, edx
0x00007ffd146d4774	48 8b d9 	mov rbx, rcx
0x00007ffd146d4777	4d 85 c0 	test r8, r8
0x00007ffd146d477a	74 53 	jz 0x7ffd146d47cf
0x00007ffd146d477c	48 85 c9 	test rcx, rcx
0x00007ffd146d477f	0f 84 c7 d0 08 00 	jz 0x7ffd1476184c
0x00007ffd146d4785	81 7b 10 ee dd ee dd 	cmp dword ptr [rbx+0x10], 0xddeeddee
0x00007ffd146d478c	44 8b c6 	mov r8d, esi
0x00007ffd146d478f	48 8b d7 	mov rdx, rdi
0x00007ffd146d4792	48 8b cb 	mov rcx, rbx
0x00007ffd146d4795	74 31 	jz 0x7ffd146d47c8
0x00007ffd146d4797	f6 05 6a 8a 14 00 02 	test byte ptr [rip+0x148a6a], 0x2
0x00007ffd146d479e	75 45 	jnz 0x7ffd146d47e5
0x00007ffd146d47a0	45 33 c9 	xor r9d, r9d
0x00007ffd146d47a3	48 c7 44 24 20 00 00 00 00 	mov qword ptr [rsp+0x20], 0x0
0x00007ffd146d47ac	e8 5f 0f 00 00 	call 0x7ffd146d5710
0x00007ffd146d5710	48 89 5c 24 10 	mov qword ptr [rsp+0x10], rbx
0x00007ffd146d5715	48 89 6c 24 18 	mov qword ptr [rsp+0x18], rbp
0x00007ffd146d571a	48 89 74 24 20 	mov qword ptr [rsp+0x20], rsi
0x00007ffd146d571f	57 	push rdi
0x00007ffd146d5720	41 54 	push r12
0x00007ffd146d5722	41 55 	push r13
0x00007ffd146d5724	41 56 	push r14
0x00007ffd146d5726	41 57 	push r15
0x00007ffd146d5728	48 81 ec 90 00 00 00 	sub rsp, 0x90
0x00007ffd146d572f	33 ff 	xor edi, edi
0x00007ffd146d5731	4d 8b e1 	mov r12, r9
0x00007ffd146d5734	81 79 10 ee dd ee dd 	cmp dword ptr [rcx+0x10], 0xddeeddee
0x00007ffd146d573b	41 8b e8 	mov ebp, r8d
0x00007ffd146d573e	4c 8b ea 	mov r13, rdx
0x00007ffd146d5741	48 8b f1 	mov rsi, rcx
0x00007ffd146d5744	44 8b f7 	mov r14d, edi
0x00007ffd146d5747	0f 85 bd 03 00 00 	jnz 0x7ffd146d5b0a
0x00007ffd146d5b0a	f7 41 74 00 00 00 01 	test dword ptr [rcx+0x74], 0x1000000
0x00007ffd146d5b11	75 4e 	jnz 0x7ffd146d5b61
0x00007ffd146d5b13	f6 41 78 01 	test byte ptr [rcx+0x78], 0x1
0x00007ffd146d5b17	0f 85 ad 12 08 00 	jnz 0x7ffd14756dca
0x00007ffd146d5b1d	41 f6 c5 0f 	test r13b, 0xf
0x00007ffd146d5b21	0f 84 87 00 00 00 	jz 0x7ffd146d5bae
0x00007ffd146d5bae	4c 8d 72 f0 	lea r14, ptr [rdx-0x10]
0x00007ffd146d5bb2	41 0f 0d 0e 	prefetchw zmmword ptr [r14]
0x00007ffd146d5bb6	41 80 7e 0f 05 	cmp byte ptr [r14+0xf], 0x5
0x00007ffd146d5bbb	75 0c 	jnz 0x7ffd146d5bc9
0x00007ffd146d5bc9	41 f6 46 0f 3f 	test byte ptr [r14+0xf], 0x3f
0x00007ffd146d5bce	0f 85 6f ff ff ff 	jnz 0x7ffd146d5b43
0x00007ffd146d5b43	4d 85 f6 	test r14, r14
0x00007ffd146d5b46	0f 84 8b 12 08 00 	jz 0x7ffd14756dd7
0x00007ffd146d5b4c	41 80 7d ff 05 	cmp byte ptr [r13-0x1], 0x5
0x00007ffd146d5b51	0f 84 b1 12 08 00 	jz 0x7ffd14756e08
0x00007ffd146d5b57	41 38 7e 0f 	cmp byte ptr [r14+0xf], dil
0x00007ffd146d5b5b	0f 8c 16 14 08 00 	jl 0x7ffd14756f77
0x00007ffd146d5b61	8b d5 	mov edx, ebp
0x00007ffd146d5b63	4d 8b cd 	mov r9, r13
0x00007ffd146d5b66	83 ca 02 	or edx, 0x2
0x00007ffd146d5b69	4d 8b c6 	mov r8, r14
0x00007ffd146d5b6c	48 8b ce 	mov rcx, rsi
0x00007ffd146d5b6f	e8 8c 00 00 00 	call 0x7ffd146d5c00
0x00007ffd146d5c00	48 89 5c 24 10 	mov qword ptr [rsp+0x10], rbx
0x00007ffd146d5c05	48 89 74 24 20 	mov qword ptr [rsp+0x20], rsi
0x00007ffd146d5c0a	4c 89 44 24 18 	mov qword ptr [rsp+0x18], r8
0x00007ffd146d5c0f	48 89 4c 24 08 	mov qword ptr [rsp+0x8], rcx
0x00007ffd146d5c14	57 	push rdi
0x00007ffd146d5c15	41 54 	push r12
0x00007ffd146d5c17	41 55 	push r13
0x00007ffd146d5c19	41 56 	push r14
0x00007ffd146d5c1b	41 57 	push r15
0x00007ffd146d5c1d	48 81 ec 80 01 00 00 	sub rsp, 0x180
0x00007ffd146d5c24	4d 8b f8 	mov r15, r8
0x00007ffd146d5c27	8b fa 	mov edi, edx
0x00007ffd146d5c29	48 8b d9 	mov rbx, rcx
0x00007ffd146d5c2c	41 b4 01 	mov r12b, 0x1
0x00007ffd146d5c2f	44 88 64 24 41 	mov byte ptr [rsp+0x41], r12b
0x00007ffd146d5c34	c6 44 24 40 00 	mov byte ptr [rsp+0x40], 0x0
0x00007ffd146d5c39	c7 44 24 74 01 00 00 00 	mov dword ptr [rsp+0x74], 0x1
0x00007ffd146d5c41	45 33 ed 	xor r13d, r13d
0x00007ffd146d5c44	4c 89 ac 24 88 00 00 00 	mov qword ptr [rsp+0x88], r13
0x00007ffd146d5c4c	66 44 89 6c 24 44 	mov word ptr [rsp+0x44], r13w
0x00007ffd146d5c52	49 3b c8 	cmp rcx, r8
0x00007ffd146d5c55	75 39 	jnz 0x7ffd146d5c90
0x00007ffd146d5c90	0b 79 74 	or edi, dword ptr [rcx+0x74]
0x00007ffd146d5c93	f7 c7 60 0f 01 7d 	test edi, 0x7d010f60
0x00007ffd146d5c99	74 28 	jz 0x7ffd146d5cc3
0x00007ffd146d5cc3	41 b8 03 00 00 00 	mov r8d, 0x3
0x00007ffd146d5cc9	65 48 8b 04 25 60 00 00 00 	mov rax, qword ptr gs:[0x60]
0x00007ffd146d5cd2	48 8b 88 90 00 00 00 	mov rcx, qword ptr [rax+0x90]
0x00007ffd146d5cd9	48 85 c9 	test rcx, rcx
0x00007ffd146d5cdc	74 24 	jz 0x7ffd146d5d02
0x00007ffd146d5d02	41 be 80 03 fe 7f 	mov r14d, 0x7ffe0380
0x00007ffd146d5d08	41 8b ce 	mov ecx, r14d
0x00007ffd146d5d0b	44 38 29 	cmp byte ptr [rcx], r13b
0x00007ffd146d5d0e	74 41 	jz 0x7ffd146d5d51
0x00007ffd146d5d51	48 8b b4 24 c0 01 00 00 	mov rsi, qword ptr [rsp+0x1c0]
0x00007ffd146d5d59	40 f6 c7 01 	test dil, 0x1
0x00007ffd146d5d5d	0f 85 df 00 00 00 	jnz 0x7ffd146d5e42
0x00007ffd146d5d63	48 8b 8b 60 01 00 00 	mov rcx, qword ptr [rbx+0x160]
0x00007ffd146d5d6a	e8 71 aa ff ff 	call 0x7ffd146d07e0
0x00007ffd146d07e0	65 48 8b 04 25 30 00 00 00 	mov rax, qword ptr gs:[0x30]
0x00007ffd146d07e9	f0 0f ba 71 08 00 	lock btr dword ptr [rcx+0x8], 0x0
0x00007ffd146d07ef	48 8b 40 48 	mov rax, qword ptr [rax+0x48]
0x00007ffd146d07f3	73 12 	jnb 0x7ffd146d0807
0x00007ffd146d07f5	48 89 41 10 	mov qword ptr [rcx+0x10], rax
0x00007ffd146d07f9	b8 01 00 00 00 	mov eax, 0x1
0x00007ffd146d07fe	c7 41 0c 01 00 00 00 	mov dword ptr [rcx+0xc], 0x1
0x00007ffd146d0805	c3 	ret 
0x00007ffd146d5d6f	85 c0 	test eax, eax
0x00007ffd146d5d71	75 6e 	jnz 0x7ffd146d5de1
0x00007ffd146d5de1	ff 83 68 02 00 00 	inc dword ptr [rbx+0x268]
0x00007ffd146d5de7	c6 44 24 40 01 	mov byte ptr [rsp+0x40], 0x1
0x00007ffd146d5dec	83 7b 7c 00 	cmp dword ptr [rbx+0x7c], 0x0
0x00007ffd146d5df0	74 2c 	jz 0x7ffd146d5e1e
0x00007ffd146d5df2	8b 93 88 00 00 00 	mov edx, dword ptr [rbx+0x88]
0x00007ffd146d5df8	33 56 08 	xor edx, dword ptr [rsi+0x8]
0x00007ffd146d5dfb	89 56 08 	mov dword ptr [rsi+0x8], edx
0x00007ffd146d5dfe	8b ca 	mov ecx, edx
0x00007ffd146d5e00	c1 e9 10 	shr ecx, 0x10
0x00007ffd146d5e03	8b c2 	mov eax, edx
0x00007ffd146d5e05	c1 e8 08 	shr eax, 0x8
0x00007ffd146d5e08	32 c8 	xor cl, al
0x00007ffd146d5e0a	32 ca 	xor cl, dl
0x00007ffd146d5e0c	c1 ea 18 	shr edx, 0x18
0x00007ffd146d5e0f	3a d1 	cmp dl, cl
0x00007ffd146d5e11	74 0b 	jz 0x7ffd146d5e1e
0x00007ffd146d5e1e	0f b7 56 08 	movzx edx, word ptr [rsi+0x8]
0x00007ffd146d5e22	48 8b 8b 38 01 00 00 	mov rcx, qword ptr [rbx+0x138]
0x00007ffd146d5e29	0f 1f 80 00 00 00 00 	nop dword ptr [rax], eax
0x00007ffd146d5e30	8b 41 08 	mov eax, dword ptr [rcx+0x8]
0x00007ffd146d5e33	48 3b d0 	cmp rdx, rax
0x00007ffd146d5e36	72 3c 	jb 0x7ffd146d5e74
0x00007ffd146d5e74	4c 8d 46 0a 	lea r8, ptr [rsi+0xa]
0x00007ffd146d5e78	41 0f b6 00 	movzx eax, byte ptr [r8]
0x00007ffd146d5e7c	a8 08 	test al, 0x8
0x00007ffd146d5e7e	74 05 	jz 0x7ffd146d5e85
0x00007ffd146d5e85	80 7e 0f 04 	cmp byte ptr [rsi+0xf], 0x4
0x00007ffd146d5e89	0f 84 62 0f 00 00 	jz 0x7ffd146d6df1
0x00007ffd146d5e8f	48 8d 7e 08 	lea rdi, ptr [rsi+0x8]
0x00007ffd146d5e93	0f b7 07 	movzx eax, word ptr [rdi]
0x00007ffd146d5e96	66 3b 83 b0 01 00 00 	cmp ax, word ptr [rbx+0x1b0]
0x00007ffd146d5e9d	73 41 	jnb 0x7ffd146d5ee0
0x00007ffd146d5e9f	8b c8 	mov ecx, eax
0x00007ffd146d5ea1	48 c1 e8 03 	shr rax, 0x3
0x00007ffd146d5ea5	0f b6 84 18 b2 01 00 00 	movzx eax, byte ptr [rax+rbx*1+0x1b2]
0x00007ffd146d5ead	83 e1 07 	and ecx, 0x7
0x00007ffd146d5eb0	ba 01 00 00 00 	mov edx, 0x1
0x00007ffd146d5eb5	d3 e2 	shl edx, cl
0x00007ffd146d5eb7	84 d0 	test al, dl
0x00007ffd146d5eb9	75 1d 	jnz 0x7ffd146d5ed8
0x00007ffd146d5ebb	0f b7 0f 	movzx ecx, word ptr [rdi]
0x00007ffd146d5ebe	48 8b 83 a8 01 00 00 	mov rax, qword ptr [rbx+0x1a8]
0x00007ffd146d5ec5	48 8d 14 48 	lea rdx, ptr [rax+rcx*2]
0x00007ffd146d5ec9	0f b7 02 	movzx eax, word ptr [rdx]
0x00007ffd146d5ecc	66 83 f8 01 	cmp ax, 0x1
0x00007ffd146d5ed0	76 06 	jbe 0x7ffd146d5ed8
0x00007ffd146d5ed2	66 ff c8 	dec ax
0x00007ffd146d5ed5	66 89 02 	mov word ptr [rdx], ax
0x00007ffd146d5ed8	48 8b b4 24 c0 01 00 00 	mov rsi, qword ptr [rsp+0x1c0]
0x00007ffd146d5ee0	45 84 e4 	test r12b, r12b
0x00007ffd146d5ee3	75 5f 	jnz 0x7ffd146d5f44
0x00007ffd146d5f44	44 0f b7 07 	movzx r8d, word ptr [rdi]
0x00007ffd146d5f48	4c 89 44 24 50 	mov qword ptr [rsp+0x50], r8
0x00007ffd146d5f4d	f6 43 70 80 	test byte ptr [rbx+0x70], 0x80
0x00007ffd146d5f51	0f 85 74 06 00 00 	jnz 0x7ffd146d65cb
0x00007ffd146d5f57	45 32 ed 	xor r13b, r13b
0x00007ffd146d5f5a	44 88 6c 24 48 	mov byte ptr [rsp+0x48], r13b
0x00007ffd146d5f5f	48 89 b4 24 b8 00 00 00 	mov qword ptr [rsp+0xb8], rsi
0x00007ffd146d5f67	0f b7 8b 8c 00 00 00 	movzx ecx, word ptr [rbx+0x8c]
0x00007ffd146d5f6e	0f b7 46 0c 	movzx eax, word ptr [rsi+0xc]
0x00007ffd146d5f72	48 33 c8 	xor rcx, rax
0x00007ffd146d5f75	48 c1 e1 04 	shl rcx, 0x4
0x00007ffd146d5f79	48 8b fe 	mov rdi, rsi
0x00007ffd146d5f7c	48 2b f9 	sub rdi, rcx
0x00007ffd146d5f7f	48 3b fe 	cmp rdi, rsi
0x00007ffd146d5f82	0f 84 00 01 00 00 	jz 0x7ffd146d6088
0x00007ffd146d5f88	8b 4b 7c 	mov ecx, dword ptr [rbx+0x7c]
0x00007ffd146d5f8b	8b c1 	mov eax, ecx
0x00007ffd146d5f8d	c1 e8 14 	shr eax, 0x14
0x00007ffd146d5f90	22 83 8a 00 00 00 	and al, byte ptr [rbx+0x8a]
0x00007ffd146d5f96	32 47 0a 	xor al, byte ptr [rdi+0xa]
0x00007ffd146d5f99	a8 01 	test al, 0x1
0x00007ffd146d5f9b	0f 85 e7 00 00 00 	jnz 0x7ffd146d6088
0x00007ffd146d6088	33 ff 	xor edi, edi
0x00007ffd146d608a	4d 8b f0 	mov r14, r8
0x00007ffd146d608d	49 c1 e6 04 	shl r14, 0x4
0x00007ffd146d6091	4c 03 f6 	add r14, rsi
0x00007ffd146d6094	83 7b 7c 00 	cmp dword ptr [rbx+0x7c], 0x0
0x00007ffd146d6098	74 56 	jz 0x7ffd146d60f0
0x00007ffd146d609a	41 8b 46 08 	mov eax, dword ptr [r14+0x8]
0x00007ffd146d609e	89 84 24 28 01 00 00 	mov dword ptr [rsp+0x128], eax
0x00007ffd146d60a5	8b 93 88 00 00 00 	mov edx, dword ptr [rbx+0x88]
0x00007ffd146d60ab	33 d0 	xor edx, eax
0x00007ffd146d60ad	89 94 24 28 01 00 00 	mov dword ptr [rsp+0x128], edx
0x00007ffd146d60b4	8b ca 	mov ecx, edx
0x00007ffd146d60b6	c1 e9 10 	shr ecx, 0x10
0x00007ffd146d60b9	8b c2 	mov eax, edx
0x00007ffd146d60bb	c1 e8 08 	shr eax, 0x8
0x00007ffd146d60be	32 c8 	xor cl, al
0x00007ffd146d60c0	32 ca 	xor cl, dl
0x00007ffd146d60c2	c1 ea 18 	shr edx, 0x18
0x00007ffd146d60c5	3a d1 	cmp dl, cl
0x00007ffd146d60c7	74 1c 	jz 0x7ffd146d60e5
0x00007ffd146d60e5	4c 8b 44 24 50 	mov r8, qword ptr [rsp+0x50]
0x00007ffd146d60ea	66 0f 1f 44 00 00 	nop word ptr [rax+rax*1], ax
0x00007ffd146d60f0	8b 4b 7c 	mov ecx, dword ptr [rbx+0x7c]
0x00007ffd146d60f3	8b c1 	mov eax, ecx
0x00007ffd146d60f5	c1 e8 14 	shr eax, 0x14
0x00007ffd146d60f8	22 83 8a 00 00 00 	and al, byte ptr [rbx+0x8a]
0x00007ffd146d60fe	41 32 46 0a 	xor al, byte ptr [r14+0xa]
0x00007ffd146d6102	a8 01 	test al, 0x1
0x00007ffd146d6104	0f 85 b0 04 00 00 	jnz 0x7ffd146d65ba
0x00007ffd146d65ba	48 89 b4 24 c0 01 00 00 	mov qword ptr [rsp+0x1c0], rsi
0x00007ffd146d65c2	44 0f b6 64 24 41 	movzx r12d, byte ptr [rsp+0x41]
0x00007ffd146d65c8	45 33 ed 	xor r13d, r13d
0x00007ffd146d65cb	4c 3b 83 b0 00 00 00 	cmp r8, qword ptr [rbx+0xb0]
0x00007ffd146d65d2	72 56 	jb 0x7ffd146d662a
0x00007ffd146d662a	48 8b 83 c0 00 00 00 	mov rax, qword ptr [rbx+0xc0]
0x00007ffd146d6631	49 8d 0c 00 	lea rcx, ptr [r8+rax*1]
0x00007ffd146d6635	48 3b 8b b8 00 00 00 	cmp rcx, qword ptr [rbx+0xb8]
0x00007ffd146d663c	76 3e 	jbe 0x7ffd146d667c
0x00007ffd146d667c	49 81 f8 00 ff 00 00 	cmp r8, 0xff00
0x00007ffd146d6683	0f 87 90 06 00 00 	jnbe 0x7ffd146d6d19
0x00007ffd146d6689	45 84 e4 	test r12b, r12b
0x00007ffd146d668c	0f 84 d6 04 00 00 	jz 0x7ffd146d6b68
0x00007ffd146d6692	41 0f b7 d0 	movzx edx, r8w
0x00007ffd146d6696	48 89 54 24 60 	mov qword ptr [rsp+0x60], rdx
0x00007ffd146d669b	c6 46 0a 00 	mov byte ptr [rsi+0xa], 0x0
0x00007ffd146d669f	c6 46 0f 00 	mov byte ptr [rsi+0xf], 0x0
0x00007ffd146d66a3	48 8d 83 50 01 00 00 	lea rax, ptr [rbx+0x150]
0x00007ffd146d66aa	4c 8b ab 38 01 00 00 	mov r13, qword ptr [rbx+0x138]
0x00007ffd146d66b1	4d 85 ed 	test r13, r13
0x00007ffd146d66b4	0f 84 bf 02 00 00 	jz 0x7ffd146d6979
0x00007ffd146d66ba	66 0f 1f 44 00 00 	nop word ptr [rax+rax*1], ax
0x00007ffd146d66c0	41 8b 4d 08 	mov ecx, dword ptr [r13+0x8]
0x00007ffd146d66c4	48 3b d1 	cmp rdx, rcx
0x00007ffd146d66c7	73 0d 	jnb 0x7ffd146d66d6
0x00007ffd146d66c9	4c 8b fa 	mov r15, rdx
0x00007ffd146d66cc	48 89 94 24 80 00 00 00 	mov qword ptr [rsp+0x80], rdx
0x00007ffd146d66d4	eb 1a 	jmp 0x7ffd146d66f0
0x00007ffd146d66f0	45 2b 7d 18 	sub r15d, dword ptr [r13+0x18]
0x00007ffd146d66f4	45 33 c9 	xor r9d, r9d
0x00007ffd146d66f7	45 8b f1 	mov r14d, r9d
0x00007ffd146d66fa	4d 8b 65 20 	mov r12, qword ptr [r13+0x20]
0x00007ffd146d66fe	49 8b 44 24 08 	mov rax, qword ptr [r12+0x8]
0x00007ffd146d6703	4c 3b e0 	cmp r12, rax
0x00007ffd146d6706	75 08 	jnz 0x7ffd146d6710
0x00007ffd146d6710	4c 8d 40 f0 	lea r8, ptr [rax-0x10]
0x00007ffd146d6714	41 8b 78 08 	mov edi, dword ptr [r8+0x8]
0x00007ffd146d6718	89 bc 24 38 01 00 00 	mov dword ptr [rsp+0x138], edi
0x00007ffd146d671f	44 39 4b 7c 	cmp dword ptr [rbx+0x7c], r9d
0x00007ffd146d6723	74 46 	jz 0x7ffd146d676b
0x00007ffd146d6725	8b 83 88 00 00 00 	mov eax, dword ptr [rbx+0x88]
0x00007ffd146d672b	33 c7 	xor eax, edi
0x00007ffd146d672d	8b f8 	mov edi, eax
0x00007ffd146d672f	89 84 24 38 01 00 00 	mov dword ptr [rsp+0x138], eax
0x00007ffd146d6736	8b c8 	mov ecx, eax
0x00007ffd146d6738	c1 e9 10 	shr ecx, 0x10
0x00007ffd146d673b	c1 e8 08 	shr eax, 0x8
0x00007ffd146d673e	32 c8 	xor cl, al
0x00007ffd146d6740	40 32 cf 	xor cl, dil
0x00007ffd146d6743	8b c7 	mov eax, edi
0x00007ffd146d6745	c1 e8 18 	shr eax, 0x18
0x00007ffd146d6748	3a c1 	cmp al, cl
0x00007ffd146d674a	74 1f 	jz 0x7ffd146d676b
0x00007ffd146d676b	0f b7 c7 	movzx eax, di
0x00007ffd146d676e	8b ca 	mov ecx, edx
0x00007ffd146d6770	2b c8 	sub ecx, eax
0x00007ffd146d6772	85 c9 	test ecx, ecx
0x00007ffd146d6774	7e 08 	jle 0x7ffd146d677e
0x00007ffd146d677e	4d 8b 04 24 	mov r8, qword ptr [r12]
0x00007ffd146d6782	49 83 c0 f0 	add r8, 0xfffffffffffffff0
0x00007ffd146d6786	41 8b 78 08 	mov edi, dword ptr [r8+0x8]
0x00007ffd146d678a	89 bc 24 48 01 00 00 	mov dword ptr [rsp+0x148], edi
0x00007ffd146d6791	44 39 73 7c 	cmp dword ptr [rbx+0x7c], r14d
0x00007ffd146d6795	74 45 	jz 0x7ffd146d67dc
0x00007ffd146d6797	8b 83 88 00 00 00 	mov eax, dword ptr [rbx+0x88]
0x00007ffd146d679d	33 c7 	xor eax, edi
0x00007ffd146d679f	8b f8 	mov edi, eax
0x00007ffd146d67a1	89 84 24 48 01 00 00 	mov dword ptr [rsp+0x148], eax
0x00007ffd146d67a8	8b c8 	mov ecx, eax
0x00007ffd146d67aa	c1 e9 10 	shr ecx, 0x10
0x00007ffd146d67ad	c1 e8 08 	shr eax, 0x8
0x00007ffd146d67b0	32 c8 	xor cl, al
0x00007ffd146d67b2	40 32 cf 	xor cl, dil
0x00007ffd146d67b5	8b c7 	mov eax, edi
0x00007ffd146d67b7	c1 e8 18 	shr eax, 0x18
0x00007ffd146d67ba	3a c1 	cmp al, cl
0x00007ffd146d67bc	74 1e 	jz 0x7ffd146d67dc
0x00007ffd146d67dc	0f b7 c7 	movzx eax, di
0x00007ffd146d67df	8b ca 	mov ecx, edx
0x00007ffd146d67e1	2b c8 	sub ecx, eax
0x00007ffd146d67e3	85 c9 	test ecx, ecx
0x00007ffd146d67e5	7f 09 	jnle 0x7ffd146d67f0
0x00007ffd146d67e7	4d 8b 34 24 	mov r14, qword ptr [r12]
0x00007ffd146d67eb	e9 49 01 00 00 	jmp 0x7ffd146d6939
0x00007ffd146d6939	48 8b b4 24 c0 01 00 00 	mov rsi, qword ptr [rsp+0x1c0]
0x00007ffd146d6941	4d 85 f6 	test r14, r14
0x00007ffd146d6944	74 11 	jz 0x7ffd146d6957
0x00007ffd146d6946	48 8d 83 50 01 00 00 	lea rax, ptr [rbx+0x150]
0x00007ffd146d694d	eb 31 	jmp 0x7ffd146d6980
0x00007ffd146d6980	49 3b c6 	cmp rax, r14
0x00007ffd146d6983	74 50 	jz 0x7ffd146d69d5
0x00007ffd146d6985	83 7b 7c 00 	cmp dword ptr [rbx+0x7c], 0x0
0x00007ffd146d6989	74 2c 	jz 0x7ffd146d69b7
0x00007ffd146d698b	41 8b 4e f8 	mov ecx, dword ptr [r14-0x8]
0x00007ffd146d698f	89 8c 24 58 01 00 00 	mov dword ptr [rsp+0x158], ecx
0x00007ffd146d6996	85 4b 7c 	test dword ptr [rbx+0x7c], ecx
0x00007ffd146d6999	74 12 	jz 0x7ffd146d69ad
0x00007ffd146d699b	8b 83 88 00 00 00 	mov eax, dword ptr [rbx+0x88]
0x00007ffd146d69a1	33 c1 	xor eax, ecx
0x00007ffd146d69a3	89 84 24 58 01 00 00 	mov dword ptr [rsp+0x158], eax
0x00007ffd146d69aa	0f b7 c8 	movzx ecx, ax
0x00007ffd146d69ad	48 8b b4 24 c0 01 00 00 	mov rsi, qword ptr [rsp+0x1c0]
0x00007ffd146d69b5	eb 05 	jmp 0x7ffd146d69bc
0x00007ffd146d69bc	66 89 4c 24 6a 	mov word ptr [rsp+0x6a], cx
0x00007ffd146d69c1	0f b7 c1 	movzx eax, cx
0x00007ffd146d69c4	48 3b d0 	cmp rdx, rax
0x00007ffd146d69c7	76 0c 	jbe 0x7ffd146d69d5
0x00007ffd146d69d5	48 8d 4e 10 	lea rcx, ptr [rsi+0x10]
0x00007ffd146d69d9	48 89 4c 24 60 	mov qword ptr [rsp+0x60], rcx
0x00007ffd146d69de	49 8b 46 08 	mov rax, qword ptr [r14+0x8]
0x00007ffd146d69e2	48 8b 10 	mov rdx, qword ptr [rax]
0x00007ffd146d69e5	49 3b d6 	cmp rdx, r14
0x00007ffd146d69e8	75 10 	jnz 0x7ffd146d69fa
0x00007ffd146d69ea	4c 89 31 	mov qword ptr [rcx], r14
0x00007ffd146d69ed	48 89 41 08 	mov qword ptr [rcx+0x8], rax
0x00007ffd146d69f1	48 89 08 	mov qword ptr [rax], rcx
0x00007ffd146d69f4	49 89 4e 08 	mov qword ptr [r14+0x8], rcx
0x00007ffd146d69f8	eb 1e 	jmp 0x7ffd146d6a18
0x00007ffd146d6a18	0f b7 46 08 	movzx eax, word ptr [rsi+0x8]
0x00007ffd146d6a1c	48 01 83 c0 00 00 00 	add qword ptr [rbx+0xc0], rax
0x00007ffd146d6a23	48 8b bb 38 01 00 00 	mov rdi, qword ptr [rbx+0x138]
0x00007ffd146d6a2a	48 85 ff 	test rdi, rdi
0x00007ffd146d6a2d	0f 84 02 01 00 00 	jz 0x7ffd146d6b35
0x00007ffd146d6a33	44 0f b7 76 08 	movzx r14d, word ptr [rsi+0x8]
0x00007ffd146d6a38	8b 4f 08 	mov ecx, dword ptr [rdi+0x8]
0x00007ffd146d6a3b	4c 3b f1 	cmp r14, rcx
0x00007ffd146d6a3e	73 0d 	jnb 0x7ffd146d6a4d
0x00007ffd146d6a40	4c 89 b4 24 e8 00 00 00 	mov qword ptr [rsp+0xe8], r14
0x00007ffd146d6a48	41 8b ce 	mov ecx, r14d
0x00007ffd146d6a4b	eb 18 	jmp 0x7ffd146d6a65
0x00007ffd146d6a65	4c 89 b4 24 18 01 00 00 	mov qword ptr [rsp+0x118], r14
0x00007ffd146d6a6d	44 8b f9 	mov r15d, ecx
0x00007ffd146d6a70	44 2b 7f 18 	sub r15d, dword ptr [rdi+0x18]
0x00007ffd146d6a74	ff 47 10 	inc dword ptr [rdi+0x10]
0x00007ffd146d6a77	47 8d 24 3f 	lea r12d, ptr [r15+r15*1]
0x00007ffd146d6a7b	83 7f 0c 00 	cmp dword ptr [rdi+0xc], 0x0
0x00007ffd146d6a7f	45 0f 44 e7 	cmovz r12d, r15d
0x00007ffd146d6a83	48 8b 47 30 	mov rax, qword ptr [rdi+0x30]
0x00007ffd146d6a87	4e 8b 2c e0 	mov r13, qword ptr [rax+r12*8]
0x00007ffd146d6a8b	8b 47 08 	mov eax, dword ptr [rdi+0x8]
0x00007ffd146d6a8e	ff c8 	dec eax
0x00007ffd146d6a90	3b c8 	cmp ecx, eax
0x00007ffd146d6a92	75 03 	jnz 0x7ffd146d6a97
0x00007ffd146d6a97	4d 85 ed 	test r13, r13
0x00007ffd146d6a9a	74 69 	jz 0x7ffd146d6b05
0x00007ffd146d6b05	48 8b 47 30 	mov rax, qword ptr [rdi+0x30]
0x00007ffd146d6b09	48 8b 4c 24 60 	mov rcx, qword ptr [rsp+0x60]
0x00007ffd146d6b0e	4a 89 0c e0 	mov qword ptr [rax+r12*8], rcx
0x00007ffd146d6b12	4d 85 ed 	test r13, r13
0x00007ffd146d6b15	75 1e 	jnz 0x7ffd146d6b35
0x00007ffd146d6b17	41 8b c7 	mov eax, r15d
0x00007ffd146d6b1a	c1 e8 05 	shr eax, 0x5
0x00007ffd146d6b1d	41 83 e7 1f 	and r15d, 0x1f
0x00007ffd146d6b21	ba 01 00 00 00 	mov edx, 0x1
0x00007ffd146d6b26	41 0f b6 cf 	movzx ecx, r15b
0x00007ffd146d6b2a	d3 e2 	shl edx, cl
0x00007ffd146d6b2c	8b c8 	mov ecx, eax
0x00007ffd146d6b2e	48 8b 47 28 	mov rax, qword ptr [rdi+0x28]
0x00007ffd146d6b32	09 14 88 	or dword ptr [rax+rcx*4], edx
0x00007ffd146d6b35	41 b8 ff ff ff ff 	mov r8d, 0xffffffff
0x00007ffd146d6b3b	83 7b 7c 00 	cmp dword ptr [rbx+0x7c], 0x0
0x00007ffd146d6b3f	0f 84 e5 01 00 00 	jz 0x7ffd146d6d2a
0x00007ffd146d6b45	0f b6 46 0a 	movzx eax, byte ptr [rsi+0xa]
0x00007ffd146d6b49	32 46 09 	xor al, byte ptr [rsi+0x9]
0x00007ffd146d6b4c	32 46 08 	xor al, byte ptr [rsi+0x8]
0x00007ffd146d6b4f	88 46 0b 	mov byte ptr [rsi+0xb], al
0x00007ffd146d6b52	8b 83 88 00 00 00 	mov eax, dword ptr [rbx+0x88]
0x00007ffd146d6b58	31 46 08 	xor dword ptr [rsi+0x8], eax
0x00007ffd146d6b5b	e9 ca 01 00 00 	jmp 0x7ffd146d6d2a
0x00007ffd146d6d2a	66 83 7c 24 44 00 	cmp word ptr [rsp+0x44], 0x0
0x00007ffd146d6d30	0f 84 a6 00 00 00 	jz 0x7ffd146d6ddc
0x00007ffd146d6ddc	45 33 ed 	xor r13d, r13d
0x00007ffd146d6ddf	bf 00 01 00 00 	mov edi, 0x100
0x00007ffd146d6de4	4c 89 ac 24 c0 01 00 00 	mov qword ptr [rsp+0x1c0], r13
0x00007ffd146d6dec	e9 78 02 00 00 	jmp 0x7ffd146d7069
0x00007ffd146d7069	80 7c 24 40 00 	cmp byte ptr [rsp+0x40], 0x0
0x00007ffd146d706e	0f 84 41 01 00 00 	jz 0x7ffd146d71b5
0x00007ffd146d7074	f7 43 74 00 00 00 01 	test dword ptr [rbx+0x74], 0x1000000
0x00007ffd146d707b	0f 85 97 00 00 00 	jnz 0x7ffd146d7118
0x00007ffd146d7081	ff 83 80 02 00 00 	inc dword ptr [rbx+0x280]
0x00007ffd146d7087	8b 93 88 02 00 00 	mov edx, dword ptr [rbx+0x288]
0x00007ffd146d708d	39 93 80 02 00 00 	cmp dword ptr [rbx+0x280], edx
0x00007ffd146d7093	76 33 	jbe 0x7ffd146d70c8
0x00007ffd146d70c8	ff 83 8c 02 00 00 	inc dword ptr [rbx+0x28c]
0x00007ffd146d70ce	81 bb 8c 02 00 00 00 10 00 00 	cmp dword ptr [rbx+0x28c], 0x1000
0x00007ffd146d70d8	72 3e 	jb 0x7ffd146d7118
0x00007ffd146d7118	48 8b b3 60 01 00 00 	mov rsi, qword ptr [rbx+0x160]
0x00007ffd146d711f	83 6e 0c 01 	sub dword ptr [rsi+0xc], 0x1
0x00007ffd146d7123	0f 85 8c 00 00 00 	jnz 0x7ffd146d71b5
0x00007ffd146d7129	4c 89 6e 10 	mov qword ptr [rsi+0x10], r13
0x00007ffd146d712d	b8 fe ff ff ff 	mov eax, 0xfffffffe
0x00007ffd146d7132	f0 44 0f b1 46 08 	lock cmpxchg dword ptr [rsi+0x8], r8d
0x00007ffd146d7138	8b d8 	mov ebx, eax
0x00007ffd146d713a	74 79 	jz 0x7ffd146d71b5
0x00007ffd146d71b5	8b 44 24 74 	mov eax, dword ptr [rsp+0x74]
0x00007ffd146d71b9	e9 b4 ea ff ff 	jmp 0x7ffd146d5c72
0x00007ffd146d5c72	4c 8d 9c 24 80 01 00 00 	lea r11, ptr [rsp+0x180]
0x00007ffd146d5c7a	49 8b 5b 38 	mov rbx, qword ptr [r11+0x38]
0x00007ffd146d5c7e	49 8b 73 48 	mov rsi, qword ptr [r11+0x48]
0x00007ffd146d5c82	49 8b e3 	mov rsp, r11
0x00007ffd146d5c85	41 5f 	pop r15
0x00007ffd146d5c87	41 5e 	pop r14
0x00007ffd146d5c89	41 5d 	pop r13
0x00007ffd146d5c8b	41 5c 	pop r12
0x00007ffd146d5c8d	5f 	pop rdi
0x00007ffd146d5c8e	c3 	ret 
0x00007ffd146d5b74	44 0f b6 f8 	movzx r15d, al
0x00007ffd146d5b78	84 c0 	test al, al
0x00007ffd146d5b7a	0f 84 9b fd ff ff 	jz 0x7ffd146d591b
0x00007ffd146d5b80	48 8b 84 24 e0 00 00 00 	mov rax, qword ptr [rsp+0xe0]
0x00007ffd146d5b88	48 85 c0 	test rax, rax
0x00007ffd146d5b8b	74 03 	jz 0x7ffd146d5b90
0x00007ffd146d5b90	4d 85 e4 	test r12, r12
0x00007ffd146d5b93	74 04 	jz 0x7ffd146d5b99
0x00007ffd146d5b99	48 8b ce 	mov rcx, rsi
0x00007ffd146d5b9c	e8 7f ec ff ff 	call 0x7ffd146d4820
0x00007ffd146d4820	48 83 ec 38 	sub rsp, 0x38
0x00007ffd146d4824	8b 05 5e 8d 14 00 	mov eax, dword ptr [rip+0x148d5e]
0x00007ffd146d482a	48 8b d1 	mov rdx, rcx
0x00007ffd146d482d	a8 01 	test al, 0x1
0x00007ffd146d482f	0f 85 6f 22 08 00 	jnz 0x7ffd14756aa4
0x00007ffd146d4835	33 c0 	xor eax, eax
0x00007ffd146d4837	48 83 c4 38 	add rsp, 0x38
0x00007ffd146d483b	c3 	ret 
0x00007ffd146d5ba1	85 c0 	test eax, eax
0x00007ffd146d5ba3	0f 84 72 fd ff ff 	jz 0x7ffd146d591b
0x00007ffd146d591b	4c 8d 9c 24 90 00 00 00 	lea r11, ptr [rsp+0x90]
0x00007ffd146d5923	41 8b c7 	mov eax, r15d
0x00007ffd146d5926	49 8b 5b 38 	mov rbx, qword ptr [r11+0x38]
0x00007ffd146d592a	49 8b 6b 40 	mov rbp, qword ptr [r11+0x40]
0x00007ffd146d592e	49 8b 73 48 	mov rsi, qword ptr [r11+0x48]
0x00007ffd146d5932	49 8b e3 	mov rsp, r11
0x00007ffd146d5935	41 5f 	pop r15
0x00007ffd146d5937	41 5e 	pop r14
0x00007ffd146d5939	41 5d 	pop r13
0x00007ffd146d593b	41 5c 	pop r12
0x00007ffd146d593d	5f 	pop rdi
0x00007ffd146d593e	c3 	ret 
0x00007ffd146d47b1	44 8b c8 	mov r9d, eax
0x00007ffd146d47b4	41 8b c1 	mov eax, r9d
0x00007ffd146d47b7	48 8b 5c 24 40 	mov rbx, qword ptr [rsp+0x40]
0x00007ffd146d47bc	48 8b 74 24 48 	mov rsi, qword ptr [rsp+0x48]
0x00007ffd146d47c1	48 83 c4 30 	add rsp, 0x30
0x00007ffd146d47c5	5f 	pop rdi
0x00007ffd146d47c6	c3 	ret 
0x00007ffd14716744	f7 43 20 00 80 00 00 	test dword ptr [rbx+0x20], 0x8000
0x00007ffd1471674b	74 11 	jz 0x7ffd1471675e
0x00007ffd1471674d	48 8b 0d cc 5d 10 00 	mov rcx, qword ptr [rip+0x105dcc]
0x00007ffd14716754	4c 8b c3 	mov r8, rbx
0x00007ffd14716757	33 d2 	xor edx, edx
0x00007ffd14716759	e8 02 e0 fb ff 	call 0x7ffd146d4760
0x00007ffd146d4760	48 89 5c 24 08 	mov qword ptr [rsp+0x8], rbx
0x00007ffd146d4765	48 89 74 24 10 	mov qword ptr [rsp+0x10], rsi
0x00007ffd146d476a	57 	push rdi
0x00007ffd146d476b	48 83 ec 30 	sub rsp, 0x30
0x00007ffd146d476f	49 8b f8 	mov rdi, r8
0x00007ffd146d4772	8b f2 	mov esi, edx
0x00007ffd146d4774	48 8b d9 	mov rbx, rcx
0x00007ffd146d4777	4d 85 c0 	test r8, r8
0x00007ffd146d477a	74 53 	jz 0x7ffd146d47cf
0x00007ffd146d477c	48 85 c9 	test rcx, rcx
0x00007ffd146d477f	0f 84 c7 d0 08 00 	jz 0x7ffd1476184c
0x00007ffd146d4785	81 7b 10 ee dd ee dd 	¸èj     d ptr [rbx+0x10], 0xddeeddee
0x00007ffd146d478c	44 8b c6 	mov r8d, esi
0x00007ffd146d478f	48 8b d7 	mov rdx, rdi
0x00007ffd146d4792	48 8b cb 	mov rcx, rbx
0x00007ffd146d4795	74 31 	jz 0x7ffd146d47c8
0x00007ffd146d4797	f6 05 6a 8a 14 00 02 	`ëj     e ptr [rip+0x148a6a], 0x2
0x00007ffd146d479e	75 45 	jnz 0x7ffd146d47e5
0x00007ffd146d47a0	45 33 c9 	xor r9d, r9d
0x00007ffd146d47a3	48 c7 44 24 20 00 00 00 00 	mov qword ptr [rsp+0x20], 0x0
0x00007ffd146d47ac	e8 5f 0f 00 00 	call 0x7ffd146d5710
0x00007ffd146d5710	48 89 5c 24 10 	mov qword ptr [rsp+0x10], rbx
0x00007ffd146d5715	48 89 6c 24 18 	mov qword ptr [rsp+0x18], rbp
0x00007ffd146d571a	48 89 74 24 20 	mov qword ptr [rsp+0x20], rsi
0x00007ffd146d571f	57 	push rdi
0x00007ffd146d5720	41 54 	push r12
0x00007ffd146d5722	41 55 	push r13
0x00007ffd146d5724	41 56 	push r14
0x00007ffd146d5726	41 57 	push r15
0x00007ffd146d5728	48 81 ec 90 00 00 00 	sub rsp, 0x90
0x00007ffd146d572f	33 ff 	xor edi, edi
0x00007ffd146d5731	4d 8b e1 	mov r12, r9
0x00007ffd146d5734	81 79 10 ee dd ee dd 	øój     d ptr [rcx+0x10], 0xddeeddee
0x00007ffd146d573b	41 8b e8 	mov ebp, r8d
0x00007ffd146d573e	4c 8b ea 	mov r13, rdx
0x00007ffd146d5741	48 8b f1 	mov rsi, rcx
0x00007ffd146d5744	44 8b f7 	mov r14d, edi
0x00007ffd146d5747	0f 85 bd 03 00 00 	jnz 0x7ffd146d5b0a
0x00007ffd146d5b0a	f7 41 74 00 00 00 01 	Xøj     `L\           *Ymý    
0x00007ffd146d5b11	75 4e 	jnz 0x7ffd146d5b61
0x00007ffd146d5b13	f6 41 78 01 	test byte ptr [rcx+0x78], 0x1
0x00007ffd146d5b17	0f 85 ad 12 08 00 	jnz 0x7ffd14756dca
0x00007ffd146d5b1d	41 f6 c5 0f 	test r13b, 0xf
0x00007ffd146d5b21	0f 84 87 00 00 00 	jz 0x7ffd146d5bae
0x00007ffd146d5bae	4c 8d 72 f0 	lea r14, ptr [rdx-0x10]
0x00007ffd146d5bb2	41 0f 0d 0e 	prefetchw zmmword ptr [r14]
0x00007ffd146d5bb6	41 80 7e 0f 05 	cmp byte ptr [r14+0xf], 0x5
0x00007ffd146d5bbb	75 0c 	jnz 0x7ffd146d5bc9
0x00007ffd146d5bc9	41 f6 46 0f 3f 	test byte ptr [r14+0xf], 0x3f
0x00007ffd146d5bce	0f 85 6f ff ff ff 	jnz 0x7ffd146d5b43
0x00007ffd146d5b43	4d 85 f6 	test r14, r14
0x00007ffd146d5b46	0f 84 8b 12 08 00 	jz 0x7ffd14756dd7
0x00007ffd146d5b4c	41 80 7d ff 05 	cmp byte ptr [r13-0x1], 0x5
0x00007ffd146d5b51	0f 84 b1 12 08 00 	jz 0x7ffd14756e08
0x00007ffd146d5b57	41 38 7e 0f 	cmp byte ptr [r14+0xf], dil
0x00007ffd146d5b5b	0f 8c 16 14 08 00 	jl 0x7ffd14756f77
0x00007ffd146d5b61	8b d5 	mov edx, ebp
0x00007ffd146d5b63	4d 8b cd 	mov r9, r13
0x00007ffd146d5b66	83 ca 02 	or edx, 0x2
0x00007ffd146d5b69	4d 8b c6 	mov r8, r14
0x00007ffd146d5b6c	48 8b ce 	mov rcx, rsi
0x00007ffd146d5b6f	e8 8c 00 00 00 	call 0x7ffd146d5c00
0x00007ffd146d5c00	48 89 5c 24 10 	mov qword ptr [rsp+0x10], rbx
0x00007ffd146d5c05	48 89 74 24 20 	mov qword ptr [rsp+0x20], rsi
0x00007ffd146d5c0a	4c 89 44 24 18 	mov qword ptr [rsp+0x18], r8
0x00007ffd146d5c0f	48 89 4c 24 08 	mov qword ptr [rsp+0x8], rcx
0x00007ffd146d5c14	57 	push rdi
0x00007ffd146d5c15	41 54 	push r12
0x00007ffd146d5c17	41 55 	push r13
0x00007ffd146d5c19	41 56 	push r14
0x00007ffd146d5c1b	41 57 	push r15
0x00007ffd146d5c1d	48 81 ec 80 01 00 00 	sub rsp, 0x180
0x00007ffd146d5c24	4d 8b f8 	mov r15, r8
0x00007ffd146d5c27	8b fa 	mov edi, edx
0x00007ffd146d5c29	48 8b d9 	mov rbx, rcx
0x00007ffd146d5c2c	41 b4 01 	mov r12b, 0x1
0x00007ffd146d5c2f	44 88 64 24 41 	mov byte ptr [rsp+0x41], r12b
0x00007ffd146d5c34	c6 44 24 40 00 	mov byte ptr [rsp+0x40], 0x0
0x00007ffd146d5c39	c7 44 24 74 01 00 00 00 	mov dword ptr [rsp+0x74], 0x1
0x00007ffd146d5c41	45 33 ed 	xor r13d, r13d
0x00007ffd146d5c44	4c 89 ac 24 88 00 00 00 	mov qword ptr [rsp+0x88], r13
0x00007ffd146d5c4c	66 44 89 6c 24 44 	mov word ptr [rsp+0x44], r13w
0x00007ffd146d5c52	49 3b c8 	cmp rcx, r8
0x00007ffd146d5c55	75 39 	jnz 0x7ffd146d5c90
0x00007ffd146d5c90	0b 79 74 	or edi, dword ptr [rcx+0x74]
0x00007ffd146d5c93	f7 c7 60 0f 01 7d 	test edi, 0x7d010f60
0x00007ffd146d5c99	74 28 	jz 0x7ffd146d5cc3
0x00007ffd146d5cc3	41 b8 03 00 00 00 	mov r8d, 0x3
0x00007ffd146d5cc9	65 48 8b 04 25 60 00 00 00 	mov rax, qword ptr gs:[0x60]
0x00007ffd146d5cd2	48 8b 88 90 00 00 00 	mov rcx, qword ptr [rax+0x90]
0x00007ffd146d5cd9	48 85 c9 	test rcx, rcx
0x00007ffd146d5cdc	74 24 	jz 0x7ffd146d5d02
0x00007ffd146d5d02	41 be 80 03 fe 7f 	mov r14d, 0x7ffe0380
0x00007ffd146d5d08	41 8b ce 	mov ecx, r14d
0x00007ffd146d5d0b	44 38 29 	cmp byte ptr [rcx], r13b
0x00007ffd146d5d0e	74 41 	jz 0x7ffd146d5d51
0x00007ffd146d5d51	48 8b b4 24 c0 01 00 00 	mov rsi, qword ptr [rsp+0x1c0]
0x00007ffd146d5d59	40 f6 c7 01 	test dil, 0x1
0x00007ffd146d5d5d	0f 85 df 00 00 00 	jnz 0x7ffd146d5e42
0x00007ffd146d5d63	48 8b 8b 60 01 00 00 	mov rcx, qword ptr [rbx+0x160]
0x00007ffd146d5d6a	e8 71 aa ff ff 	call 0x7ffd146d07e0
0x00007ffd146d07e0	65 48 8b 04 25 30 00 00 00 	mov rax, qword ptr gs:[0x30]
0x00007ffd146d07e9	f0 0f ba 71 08 00 	Èûj                          
0x00007ffd146d07ef	48 8b 40 48 	mov rax, qword ptr [rax+0x48]
0x00007ffd146d07f3	73 12 	jnb 0x7ffd146d0807
0x00007ffd146d07f5	48 89 41 10 	mov qword ptr [rcx+0x10], rax
0x00007ffd146d07f9	b8 01 00 00 00 	mov eax, 0x1
0x00007ffd146d07fe	c7 41 0c 01 00 00 00 	mov dword ptr [rcx+0xc], 0x1
0x00007ffd146d0805	c3 	ret 
0x00007ffd146d5d6f	85 c0 	test eax, eax
0x00007ffd146d5d71	75 6e 	jnz 0x7ffd146d5de1
0x00007ffd146d5de1	ff 83 68 02 00 00 	inc dword ptr [rbx+0x268]
0x00007ffd146d5de7	c6 44 24 40 01 	mov byte ptr [rsp+0x40], 0x1
0x00007ffd146d5dec	83 7b 7c 00 	cmp dword ptr [rbx+0x7c], 0x0
0x00007ffd146d5df0	74 2c 	jz 0x7ffd146d5e1e
0x00007ffd146d5df2	8b 93 88 00 00 00 	mov edx, dword ptr [rbx+0x88]
0x00007ffd146d5df8	33 56 08 	xor edx, dword ptr [rsi+0x8]
0x00007ffd146d5dfb	89 56 08 	mov dword ptr [rsi+0x8], edx
0x00007ffd146d5dfe	8b ca 	mov ecx, edx
0x00007ffd146d5e00	c1 e9 10 	shr ecx, 0x10
0x00007ffd146d5e03	8b c2 	mov eax, edx
0x00007ffd146d5e05	c1 e8 08 	shr eax, 0x8
0x00007ffd146d5e08	32 c8 	xor cl, al
0x00007ffd146d5e0a	32 ca 	xor cl, dl
0x00007ffd146d5e0c	c1 ea 18 	shr edx, 0x18
0x00007ffd146d5e0f	3a d1 	cmp dl, cl
0x00007ffd146d5e11	74 0b 	jz 0x7ffd146d5e1e
0x00007ffd146d5e1e	0f b7 56 08 	movzx edx, word ptr [rsi+0x8]
0x00007ffd146d5e22	48 8b 8b 38 01 00 00 	mov rcx, qword ptr [rbx+0x138]
0x00007ffd146d5e29	0f 1f 80 00 00 00 00 	nop dword ptr [rax], eax
0x00007ffd146d5e30	8b 41 08 	mov eax, dword ptr [rcx+0x8]
0x00007ffd146d5e33	48 3b d0 	cmp rdx, rax
0x00007ffd146d5e36	72 3c 	jb 0x7ffd146d5e74
0x00007ffd146d5e74	4c 8d 46 0a 	lea r8, ptr [rsi+0xa]
0x00007ffd146d5e78	41 0f b6 00 	movzx eax, byte ptr [r8]
0x00007ffd146d5e7c	a8 08 	test al, 0x8
0x00007ffd146d5e7e	74 05 	jz 0x7ffd146d5e85
0x00007ffd146d5e85	80 7e 0f 04 	cmp byte ptr [rsi+0xf], 0x4
0x00007ffd146d5e89	0f 84 62 0f 00 00 	jz 0x7ffd146d6df1
0x00007ffd146d5e8f	48 8d 7e 08 	lea rdi, ptr [rsi+0x8]
0x00007ffd146d5e93	0f b7 07 	movzx eax, word ptr [rdi]
0x00007ffd146d5e96	66 3b 83 b0 01 00 00 	cmp ax, word ptr [rbx+0x1b0]
0x00007ffd146d5e9d	73 41 	jnb 0x7ffd146d5ee0
0x00007ffd146d5e9f	8b c8 	mov ecx, eax
0x00007ffd146d5ea1	48 c1 e8 03 	shr rax, 0x3
0x00007ffd146d5ea5	0f b6 84 18 b2 01 00 00 	Àïj     `L\           *Ymý     
0x00007ffd146d5ead	83 e1 07 	and ecx, 0x7
0x00007ffd146d5eb0	ba 01 00 00 00 	mov edx, 0x1
0x00007ffd146d5eb5	d3 e2 	shl edx, cl
0x00007ffd146d5eb7	84 d0 	test al, dl
0x00007ffd146d5eb9	75 1d 	jnz 0x7ffd146d5ed8
0x00007ffd146d5ebb	0f b7 0f 	movzx ecx, word ptr [rdi]
0x00007ffd146d5ebe	48 8b 83 a8 01 00 00 	mov rax, qword ptr [rbx+0x1a8]
0x00007ffd146d5ec5	48 8d 14 48 	lea rdx, ptr [rax+rcx*2]
0x00007ffd146d5ec9	0f b7 02 	movzx eax, word ptr [rdx]
0x00007ffd146d5ecc	66 83 f8 01 	cmp ax, 0x1
0x00007ffd146d5ed0	76 06 	jbe 0x7ffd146d5ed8
0x00007ffd146d5ed2	66 ff c8 	dec ax
0x00007ffd146d5ed5	66 89 02 	mov word ptr [rdx], ax
0x00007ffd146d5ed8	48 8b b4 24 c0 01 00 00 	mov rsi, qword ptr [rsp+0x1c0]
0x00007ffd146d5ee0	45 84 e4 	test r12b, r12b
0x00007ffd146d5ee3	75 5f 	jnz 0x7ffd146d5f44
0x00007ffd146d5f44	44 0f b7 07 	movzx r8d, word ptr [rdi]
0x00007ffd146d5f48	4c 89 44 24 50 	mov qword ptr [rsp+0x50], r8
0x00007ffd146d5f4d	f6 43 70 80 	test byte ptr [rbx+0x70], 0x80
0x00007ffd146d5f51	0f 85 74 06 00 00 	jnz 0x7ffd146d65cb
0x00007ffd146d5f57	45 32 ed 	xor r13b, r13b
0x00007ffd146d5f5a	44 88 6c 24 48 	mov byte ptr [rsp+0x48], r13b
0x00007ffd146d5f5f	48 89 b4 24 b8 00 00 00 	mov qword ptr [rsp+0xb8], rsi
0x00007ffd146d5f67	0f b7 8b 8c 00 00 00 	movzx ecx, word ptr [rbx+0x8c]
0x00007ffd146d5f6e	0f b7 46 0c 	movzx eax, word ptr [rsi+0xc]
0x00007ffd146d5f72	48 33 c8 	xor rcx, rax
0x00007ffd146d5f75	48 c1 e1 04 	shl rcx, 0x4
0x00007ffd146d5f79	48 8b fe 	mov rdi, rsi
0x00007ffd146d5f7c	48 2b f9 	sub rdi, rcx
0x00007ffd146d5f7f	48 3b fe 	cmp rdi, rsi
0x00007ffd146d5f82	0f 84 00 01 00 00 	jz 0x7ffd146d6088
0x00007ffd146d5f88	8b 4b 7c 	mov ecx, dword ptr [rbx+0x7c]
0x00007ffd146d5f8b	8b c1 	mov eax, ecx
0x00007ffd146d5f8d	c1 e8 14 	shr eax, 0x14
0x00007ffd146d5f90	22 83 8a 00 00 00 	and al, byte ptr [rbx+0x8a]
0x00007ffd146d5f96	32 47 0a 	xor al, byte ptr [rdi+0xa]
0x00007ffd146d5f99	a8 01 	test al, 0x1
0x00007ffd146d5f9b	0f 85 e7 00 00 00 	jnz 0x7ffd146d6088
0x00007ffd146d6088	33 ff 	xor edi, edi
0x00007ffd146d608a	4d 8b f0 	mov r14, r8
0x00007ffd146d608d	49 c1 e6 04 	shl r14, 0x4
0x00007ffd146d6091	4c 03 f6 	add r14, rsi
0x00007ffd146d6094	83 7b 7c 00 	cmp dword ptr [rbx+0x7c], 0x0
0x00007ffd146d6098	74 56 	jz 0x7ffd146d60f0
0x00007ffd146d609a	41 8b 46 08 	mov eax, dword ptr [r14+0x8]
0x00007ffd146d609e	89 84 24 28 01 00 00 	mov dword ptr [rsp+0x128], eax
0x00007ffd146d60a5	8b 93 88 00 00 00 	mov edx, dword ptr [rbx+0x88]
0x00007ffd146d60ab	33 d0 	xor edx, eax
0x00007ffd146d60ad	89 94 24 28 01 00 00 	mov dword ptr [rsp+0x128], edx
0x00007ffd146d60b4	8b ca 	mov ecx, edx
0x00007ffd146d60b6	c1 e9 10 	shr ecx, 0x10
0x00007ffd146d60b9	8b c2 	mov eax, edx
0x00007ffd146d60bb	c1 e8 08 	shr eax, 0x8
0x00007ffd146d60be	32 c8 	xor cl, al
0x00007ffd146d60c0	32 ca 	xor cl, dl
0x00007ffd146d60c2	c1 ea 18 	shr edx, 0x18
0x00007ffd146d60c5	3a d1 	cmp dl, cl
0x00007ffd146d60c7	74 1c 	jz 0x7ffd146d60e5
0x00007ffd146d60e5	4c 8b 44 24 50 	mov r8, qword ptr [rsp+0x50]
0x00007ffd146d60ea	66 0f 1f 44 00 00 	nop word ptr [rax+rax*1], ax
0x00007ffd146d60f0	8b 4b 7c 	mov ecx, dword ptr [rbx+0x7c]
0x00007ffd146d60f3	8b c1 	mov eax, ecx
0x00007ffd146d60f5	c1 e8 14 	shr eax, 0x14
0x00007ffd146d60f8	22 83 8a 00 00 00 	and al, byte ptr [rbx+0x8a]
0x00007ffd146d60fe	41 32 46 0a 	xor al, byte ptr [r14+0xa]
0x00007ffd146d6102	a8 01 	test al, 0x1
0x00007ffd146d6104	0f 85 b0 04 00 00 	jnz 0x7ffd146d65ba
0x00007ffd146d65ba	48 89 b4 24 c0 01 00 00 	mov qword ptr [rsp+0x1c0], rsi
0x00007ffd146d65c2	44 0f b6 64 24 41 	movzx r12d, byte ptr [rsp+0x41]
0x00007ffd146d65c8	45 33 ed 	xor r13d, r13d
0x00007ffd146d65cb	4c 3b 83 b0 00 00 00 	cmp r8, qword ptr [rbx+0xb0]
0x00007ffd146d65d2	72 56 	jb 0x7ffd146d662a
0x00007ffd146d662a	48 8b 83 c0 00 00 00 	mov rax, qword ptr [rbx+0xc0]
0x00007ffd146d6631	49 8d 0c 00 	lea rcx, ptr [r8+rax*1]
0x00007ffd146d6635	48 3b 8b b8 00 00 00 	cmp rcx, qword ptr [rbx+0xb8]
0x00007ffd146d663c	76 3e 	jbe 0x7ffd146d667c
0x00007ffd146d667c	49 81 f8 00 ff 00 00 	cmp r8, 0xff00
0x00007ffd146d6683	0f 87 90 06 00 00 	jnbe 0x7ffd146d6d19
0x00007ffd146d6689	45 84 e4 	test r12b, r12b
0x00007ffd146d668c	0f 84 d6 04 00 00 	jz 0x7ffd146d6b68
0x00007ffd146d6692	41 0f b7 d0 	movzx edx, r8w
0x00007ffd146d6696	48 89 54 24 60 	mov qword ptr [rsp+0x60], rdx
0x00007ffd146d669b	c6 46 0a 00 	mov byte ptr [rsi+0xa], 0x0
0x00007ffd146d669f	c6 46 0f 00 	mov byte ptr [rsi+0xf], 0x0
0x00007ffd146d66a3	48 8d 83 50 01 00 00 	lea rax, ptr [rbx+0x150]
0x00007ffd146d66aa	4c 8b ab 38 01 00 00 	mov r13, qword ptr [rbx+0x138]
0x00007ffd146d66b1	4d 85 ed 	test r13, r13
0x00007ffd146d66b4	0f 84 bf 02 00 00 	jz 0x7ffd146d6979
0x00007ffd146d66ba	66 0f 1f 44 00 00 	nop word ptr [rax+rax*1], ax
0x00007ffd146d66c0	41 8b 4d 08 	mov ecx, dword ptr [r13+0x8]
0x00007ffd146d66c4	48 3b d1 	cmp rdx, rcx
0x00007ffd146d66c7	73 0d 	jnb 0x7ffd146d66d6
0x00007ffd146d66c9	4c 8b fa 	mov r15, rdx
0x00007ffd146d66cc	48 89 94 24 80 00 00 00 	mov qword ptr [rsp+0x80], rdx
0x00007ffd146d66d4	eb 1a 	jmp 0x7ffd146d66f0
0x00007ffd146d66f0	45 2b 7d 18 	sub r15d, dword ptr [r13+0x18]
0x00007ffd146d66f4	45 33 c9 	xor r9d, r9d
0x00007ffd146d66f7	45 8b f1 	mov r14d, r9d
0x00007ffd146d66fa	4d 8b 65 20 	mov r12, qword ptr [r13+0x20]
0x00007ffd146d66fe	49 8b 44 24 08 	mov rax, qword ptr [r12+0x8]
0x00007ffd146d6703	4c 3b e0 	cmp r12, rax
0x00007ffd146d6706	75 08 	jnz 0x7ffd146d6710
0x00007ffd146d6710	4c 8d 40 f0 	lea r8, ptr [rax-0x10]
0x00007ffd146d6714	41 8b 78 08 	mov edi, dword ptr [r8+0x8]
0x00007ffd146d6718	89 bc 24 38 01 00 00 	mov dword ptr [rsp+0x138], edi
0x00007ffd146d671f	44 39 4b 7c 	cmp dword ptr [rbx+0x7c], r9d
0x00007ffd146d6723	74 46 	jz 0x7ffd146d676b
0x00007ffd146d6725	8b 83 88 00 00 00 	mov eax, dword ptr [rbx+0x88]
0x00007ffd146d672b	33 c7 	xor eax, edi
0x00007ffd146d672d	8b f8 	mov edi, eax
0x00007ffd146d672f	89 84 24 38 01 00 00 	mov dword ptr [rsp+0x138], eax
0x00007ffd146d6736	8b c8 	mov ecx, eax
0x00007ffd146d6738	c1 e9 10 	shr ecx, 0x10
0x00007ffd146d673b	c1 e8 08 	shr eax, 0x8
0x00007ffd146d673e	32 c8 	xor cl, al
0x00007ffd146d6740	40 32 cf 	xor cl, dil
0x00007ffd146d6743	8b c7 	mov eax, edi
0x00007ffd146d6745	c1 e8 18 	shr eax, 0x18
0x00007ffd146d6748	3a c1 	cmp al, cl
0x00007ffd146d674a	74 1f 	jz 0x7ffd146d676b
0x00007ffd146d676b	0f b7 c7 	movzx eax, di
0x00007ffd146d676e	8b ca 	mov ecx, edx
0x00007ffd146d6770	2b c8 	sub ecx, eax
0x00007ffd146d6772	85 c9 	test ecx, ecx
0x00007ffd146d6774	7e 08 	jle 0x7ffd146d677e
0x00007ffd146d677e	4d 8b 04 24 	mov r8, qword ptr [r12]
0x00007ffd146d6782	49 83 c0 f0 	add r8, 0xfffffffffffffff0
0x00007ffd146d6786	41 8b 78 08 	mov edi, dword ptr [r8+0x8]
0x00007ffd146d678a	89 bc 24 48 01 00 00 	mov dword ptr [rsp+0x148], edi
0x00007ffd146d6791	44 39 73 7c 	cmp dword ptr [rbx+0x7c], r14d
0x00007ffd146d6795	74 45 	jz 0x7ffd146d67dc
0x00007ffd146d6797	8b 83 88 00 00 00 	mov eax, dword ptr [rbx+0x88]
0x00007ffd146d679d	33 c7 	xor eax, edi
0x00007ffd146d679f	8b f8 	mov edi, eax
0x00007ffd146d67a1	89 84 24 48 01 00 00 	mov dword ptr [rsp+0x148], eax
0x00007ffd146d67a8	8b c8 	mov ecx, eax
0x00007ffd146d67aa	c1 e9 10 	shr ecx, 0x10
0x00007ffd146d67ad	c1 e8 08 	shr eax, 0x8
0x00007ffd146d67b0	32 c8 	xor cl, al
0x00007ffd146d67b2	40 32 cf 	xor cl, dil
0x00007ffd146d67b5	8b c7 	mov eax, edi
0x00007ffd146d67b7	c1 e8 18 	shr eax, 0x18
0x00007ffd146d67ba	3a c1 	cmp al, cl
0x00007ffd146d67bc	74 1e 	jz 0x7ffd146d67dc
0x00007ffd146d67dc	0f b7 c7 	movzx eax, di
0x00007ffd146d67df	8b ca 	mov ecx, edx
0x00007ffd146d67e1	2b c8 	sub ecx, eax
0x00007ffd146d67e3	85 c9 	test ecx, ecx
0x00007ffd146d67e5	7f 09 	jnle 0x7ffd146d67f0
0x00007ffd146d67e7	4d 8b 34 24 	mov r14, qword ptr [r12]
0x00007ffd146d67eb	e9 49 01 00 00 	jmp 0x7ffd146d6939
0x00007ffd146d6939	48 8b b4 24 c0 01 00 00 	mov rsi, qword ptr [rsp+0x1c0]
0x00007ffd146d6941	4d 85 f6 	test r14, r14
0x00007ffd146d6944	74 11 	jz 0x7ffd146d6957
0x00007ffd146d6946	48 8d 83 50 01 00 00 	lea rax, ptr [rbx+0x150]
0x00007ffd146d694d	eb 31 	jmp 0x7ffd146d6980
0x00007ffd146d6980	49 3b c6 	cmp rax, r14
0x00007ffd146d6983	74 50 	jz 0x7ffd146d69d5
0x00007ffd146d6985	83 7b 7c 00 	cmp dword ptr [rbx+0x7c], 0x0
0x00007ffd146d6989	74 2c 	jz 0x7ffd146d69b7
0x00007ffd146d698b	41 8b 4e f8 	mov ecx, dword ptr [r14-0x8]
0x00007ffd146d698f	89 8c 24 58 01 00 00 	mov dword ptr [rsp+0x158], ecx
0x00007ffd146d6996	85 4b 7c 	test dword ptr [rbx+0x7c], ecx
0x00007ffd146d6999	74 12 	jz 0x7ffd146d69ad
0x00007ffd146d699b	8b 83 88 00 00 00 	mov eax, dword ptr [rbx+0x88]
0x00007ffd146d69a1	33 c1 	xor eax, ecx
0x00007ffd146d69a3	89 84 24 58 01 00 00 	mov dword ptr [rsp+0x158], eax
0x00007ffd146d69aa	0f b7 c8 	movzx ecx, ax
0x00007ffd146d69ad	48 8b b4 24 c0 01 00 00 	mov rsi, qword ptr [rsp+0x1c0]
0x00007ffd146d69b5	eb 05 	jmp 0x7ffd146d69bc
0x00007ffd146d69bc	66 89 4c 24 6a 	mov word ptr [rsp+0x6a], cx
0x00007ffd146d69c1	0f b7 c1 	movzx eax, cx
0x00007ffd146d69c4	48 3b d0 	cmp rdx, rax
0x00007ffd146d69c7	76 0c 	jbe 0x7ffd146d69d5
0x00007ffd146d69d5	48 8d 4e 10 	lea rcx, ptr [rsi+0x10]
0x00007ffd146d69d9	48 89 4c 24 60 	mov qword ptr [rsp+0x60], rcx
0x00007ffd146d69de	49 8b 46 08 	mov rax, qword ptr [r14+0x8]
0x00007ffd146d69e2	48 8b 10 	mov rdx, qword ptr [rax]
0x00007ffd146d69e5	49 3b d6 	cmp rdx, r14
0x00007ffd146d69e8	75 10 	jnz 0x7ffd146d69fa
0x00007ffd146d69ea	4c 89 31 	mov qword ptr [rcx], r14
0x00007ffd146d69ed	48 89 41 08 	mov qword ptr [rcx+0x8], rax
0x00007ffd146d69f1	48 89 08 	mov qword ptr [rax], rcx
0x00007ffd146d69f4	49 89 4e 08 	mov qword ptr [r14+0x8], rcx
0x00007ffd146d69f8	eb 1e 	jmp 0x7ffd146d6a18
0x00007ffd146d6a18	0f b7 46 08 	movzx eax, word ptr [rsi+0x8]
0x00007ffd146d6a1c	48 01 83 c0 00 00 00 	add qword ptr [rbx+0xc0], rax
0x00007ffd146d6a23	48 8b bb 38 01 00 00 	mov rdi, qword ptr [rbx+0x138]
0x00007ffd146d6a2a	48 85 ff 	test rdi, rdi
0x00007ffd146d6a2d	0f 84 02 01 00 00 	jz 0x7ffd146d6b35
0x00007ffd146d6a33	44 0f b7 76 08 	movzx r14d, word ptr [rsi+0x8]
0x00007ffd146d6a38	8b 4f 08 	mov ecx, dword ptr [rdi+0x8]
0x00007ffd146d6a3b	4c 3b f1 	cmp r14, rcx
0x00007ffd146d6a3e	73 0d 	jnb 0x7ffd146d6a4d
0x00007ffd146d6a40	4c 89 b4 24 e8 00 00 00 	mov qword ptr [rsp+0xe8], r14
0x00007ffd146d6a48	41 8b ce 	mov ecx, r14d
0x00007ffd146d6a4b	eb 18 	jmp 0x7ffd146d6a65
0x00007ffd146d6a65	4c 89 b4 24 18 01 00 00 	mov qword ptr [rsp+0x118], r14
0x00007ffd146d6a6d	44 8b f9 	mov r15d, ecx
0x00007ffd146d6a70	44 2b 7f 18 	sub r15d, dword ptr [rdi+0x18]
0x00007ffd146d6a74	ff 47 10 	inc dword ptr [rdi+0x10]
0x00007ffd146d6a77	47 8d 24 3f 	lea r12d, ptr [r15+r15*1]
0x00007ffd146d6a7b	83 7f 0c 00 	cmp dword ptr [rdi+0xc], 0x0
0x00007ffd146d6a7f	45 0f 44 e7 	cmovz r12d, r15d
0x00007ffd146d6a83	48 8b 47 30 	mov rax, qword ptr [rdi+0x30]
0x00007ffd146d6a87	4e 8b 2c e0 	mov r13, qword ptr [rax+r12*8]
0x00007ffd146d6a8b	8b 47 08 	mov eax, dword ptr [rdi+0x8]
0x00007ffd146d6a8e	ff c8 	dec eax
0x00007ffd146d6a90	3b c8 	cmp ecx, eax
0x00007ffd146d6a92	75 03 	jnz 0x7ffd146d6a97
0x00007ffd146d6a97	4d 85 ed 	test r13, r13
0x00007ffd146d6a9a	74 69 	jz 0x7ffd146d6b05
0x00007ffd146d6b05	48 8b 47 30 	mov rax, qword ptr [rdi+0x30]
0x00007ffd146d6b09	48 8b 4c 24 60 	mov rcx, qword ptr [rsp+0x60]
0x00007ffd146d6b0e	4a 89 0c e0 	mov qword ptr [rax+r12*8], rcx
0x00007ffd146d6b12	4d 85 ed 	test r13, r13
0x00007ffd146d6b15	75 1e 	jnz 0x7ffd146d6b35
0x00007ffd146d6b17	41 8b c7 	mov eax, r15d
0x00007ffd146d6b1a	c1 e8 05 	shr eax, 0x5
0x00007ffd146d6b1d	41 83 e7 1f 	and r15d, 0x1f
0x00007ffd146d6b21	ba 01 00 00 00 	mov edx, 0x1
0x00007ffd146d6b26	41 0f b6 cf 	movzx ecx, r15b
0x00007ffd146d6b2a	d3 e2 	shl edx, cl
0x00007ffd146d6b2c	8b c8 	mov ecx, eax
0x00007ffd146d6b2e	48 8b 47 28 	mov rax, qword ptr [rdi+0x28]
0x00007ffd146d6b32	09 14 88 	or dword ptr [rax+rcx*4], edx
0x00007ffd146d6b35	41 b8 ff ff ff ff 	mov r8d, 0xffffffff
0x00007ffd146d6b3b	83 7b 7c 00 	cmp dword ptr [rbx+0x7c], 0x0
0x00007ffd146d6b3f	0f 84 e5 01 00 00 	jz 0x7ffd146d6d2a
0x00007ffd146d6b45	0f b6 46 0a 	movzx eax, byte ptr [rsi+0xa]
0x00007ffd146d6b49	32 46 09 	xor al, byte ptr [rsi+0x9]
0x00007ffd146d6b4c	32 46 08 	xor al, byte ptr [rsi+0x8]
0x00007ffd146d6b4f	88 46 0b 	mov byte ptr [rsi+0xb], al
0x00007ffd146d6b52	8b 83 88 00 00 00 	mov eax, dword ptr [rbx+0x88]
0x00007ffd146d6b58	31 46 08 	xor dword ptr [rsi+0x8], eax
0x00007ffd146d6b5b	e9 ca 01 00 00 	jmp 0x7ffd146d6d2a
0x00007ffd146d6d2a	66 83 7c 24 44 00 	cmp word ptr [rsp+0x44], 0x0
0x00007ffd146d6d30	0f 84 a6 00 00 00 	jz 0x7ffd146d6ddc
0x00007ffd146d6ddc	45 33 ed 	xor r13d, r13d
0x00007ffd146d6ddf	bf 00 01 00 00 	mov edi, 0x100
0x00007ffd146d6de4	4c 89 ac 24 c0 01 00 00 	mov qword ptr [rsp+0x1c0], r13
0x00007ffd146d6dec	e9 78 02 00 00 	jmp 0x7ffd146d7069
0x00007ffd146d7069	80 7c 24 40 00 	cmp byte ptr [rsp+0x40], 0x0
0x00007ffd146d706e	0f 84 41 01 00 00 	jz 0x7ffd146d71b5
0x00007ffd146d7074	f7 43 74 00 00 00 01 	Øÿj                             
0x00007ffd146d707b	0f 85 97 00 00 00 	jnz 0x7ffd146d7118
0x00007ffd146d7081	ff 83 80 02 00 00 	inc dword ptr [rbx+0x280]
0x00007ffd146d7087	8b 93 88 02 00 00 	mov edx, dword ptr [rbx+0x288]
0x00007ffd146d708d	39 93 80 02 00 00 	cmp dword ptr [rbx+0x280], edx
0x00007ffd146d7093	76 33 	jbe 0x7ffd146d70c8
